
prog:     file format elf64-x86-64


Disassembly of section .init:

0000000000402068 <_init>:
  402068:	48 83 ec 08          	sub    $0x8,%rsp
  40206c:	48 8b 05 25 b2 21 00 	mov    0x21b225(%rip),%rax        # 61d298 <_DYNAMIC+0x270>
  402073:	48 85 c0             	test   %rax,%rax
  402076:	74 05                	je     40207d <_init+0x15>
  402078:	e8 a3 03 00 00       	callq  402420 <__gmon_start__@plt>
  40207d:	48 83 c4 08          	add    $0x8,%rsp
  402081:	c3                   	retq   

Disassembly of section .plt:

0000000000402090 <SDL_DestroyWindow@plt-0x10>:
  402090:	ff 35 12 b2 21 00    	pushq  0x21b212(%rip)        # 61d2a8 <_GLOBAL_OFFSET_TABLE_+0x8>
  402096:	ff 25 14 b2 21 00    	jmpq   *0x21b214(%rip)        # 61d2b0 <_GLOBAL_OFFSET_TABLE_+0x10>
  40209c:	0f 1f 40 00          	nopl   0x0(%rax)

00000000004020a0 <SDL_DestroyWindow@plt>:
  4020a0:	ff 25 12 b2 21 00    	jmpq   *0x21b212(%rip)        # 61d2b8 <_GLOBAL_OFFSET_TABLE_+0x18>
  4020a6:	68 00 00 00 00       	pushq  $0x0
  4020ab:	e9 e0 ff ff ff       	jmpq   402090 <_init+0x28>

00000000004020b0 <_Znam@plt>:
  4020b0:	ff 25 0a b2 21 00    	jmpq   *0x21b20a(%rip)        # 61d2c0 <_GLOBAL_OFFSET_TABLE_+0x20>
  4020b6:	68 01 00 00 00       	pushq  $0x1
  4020bb:	e9 d0 ff ff ff       	jmpq   402090 <_init+0x28>

00000000004020c0 <glDrawArrays@plt>:
  4020c0:	ff 25 02 b2 21 00    	jmpq   *0x21b202(%rip)        # 61d2c8 <_GLOBAL_OFFSET_TABLE_+0x28>
  4020c6:	68 02 00 00 00       	pushq  $0x2
  4020cb:	e9 c0 ff ff ff       	jmpq   402090 <_init+0x28>

00000000004020d0 <SDL_CreateWindow@plt>:
  4020d0:	ff 25 fa b1 21 00    	jmpq   *0x21b1fa(%rip)        # 61d2d0 <_GLOBAL_OFFSET_TABLE_+0x30>
  4020d6:	68 03 00 00 00       	pushq  $0x3
  4020db:	e9 b0 ff ff ff       	jmpq   402090 <_init+0x28>

00000000004020e0 <SDL_Quit@plt>:
  4020e0:	ff 25 f2 b1 21 00    	jmpq   *0x21b1f2(%rip)        # 61d2d8 <_GLOBAL_OFFSET_TABLE_+0x38>
  4020e6:	68 04 00 00 00       	pushq  $0x4
  4020eb:	e9 a0 ff ff ff       	jmpq   402090 <_init+0x28>

00000000004020f0 <SDL_GL_DeleteContext@plt>:
  4020f0:	ff 25 ea b1 21 00    	jmpq   *0x21b1ea(%rip)        # 61d2e0 <_GLOBAL_OFFSET_TABLE_+0x40>
  4020f6:	68 05 00 00 00       	pushq  $0x5
  4020fb:	e9 90 ff ff ff       	jmpq   402090 <_init+0x28>

0000000000402100 <_ZNSolsEm@plt>:
  402100:	ff 25 e2 b1 21 00    	jmpq   *0x21b1e2(%rip)        # 61d2e8 <_GLOBAL_OFFSET_TABLE_+0x48>
  402106:	68 06 00 00 00       	pushq  $0x6
  40210b:	e9 80 ff ff ff       	jmpq   402090 <_init+0x28>

0000000000402110 <glClear@plt>:
  402110:	ff 25 da b1 21 00    	jmpq   *0x21b1da(%rip)        # 61d2f0 <_GLOBAL_OFFSET_TABLE_+0x50>
  402116:	68 07 00 00 00       	pushq  $0x7
  40211b:	e9 70 ff ff ff       	jmpq   402090 <_init+0x28>

0000000000402120 <_ZSt9terminatev@plt>:
  402120:	ff 25 d2 b1 21 00    	jmpq   *0x21b1d2(%rip)        # 61d2f8 <_GLOBAL_OFFSET_TABLE_+0x58>
  402126:	68 08 00 00 00       	pushq  $0x8
  40212b:	e9 60 ff ff ff       	jmpq   402090 <_init+0x28>

0000000000402130 <SDL_GL_CreateContext@plt>:
  402130:	ff 25 ca b1 21 00    	jmpq   *0x21b1ca(%rip)        # 61d300 <_GLOBAL_OFFSET_TABLE_+0x60>
  402136:	68 09 00 00 00       	pushq  $0x9
  40213b:	e9 50 ff ff ff       	jmpq   402090 <_init+0x28>

0000000000402140 <_ZSt17__throw_bad_allocv@plt>:
  402140:	ff 25 c2 b1 21 00    	jmpq   *0x21b1c2(%rip)        # 61d308 <_GLOBAL_OFFSET_TABLE_+0x68>
  402146:	68 0a 00 00 00       	pushq  $0xa
  40214b:	e9 40 ff ff ff       	jmpq   402090 <_init+0x28>

0000000000402150 <SDL_GL_SetSwapInterval@plt>:
  402150:	ff 25 ba b1 21 00    	jmpq   *0x21b1ba(%rip)        # 61d310 <_GLOBAL_OFFSET_TABLE_+0x70>
  402156:	68 0b 00 00 00       	pushq  $0xb
  40215b:	e9 30 ff ff ff       	jmpq   402090 <_init+0x28>

0000000000402160 <SDL_GetWindowSize@plt>:
  402160:	ff 25 b2 b1 21 00    	jmpq   *0x21b1b2(%rip)        # 61d318 <_GLOBAL_OFFSET_TABLE_+0x78>
  402166:	68 0c 00 00 00       	pushq  $0xc
  40216b:	e9 20 ff ff ff       	jmpq   402090 <_init+0x28>

0000000000402170 <__cxa_begin_catch@plt>:
  402170:	ff 25 aa b1 21 00    	jmpq   *0x21b1aa(%rip)        # 61d320 <_GLOBAL_OFFSET_TABLE_+0x80>
  402176:	68 0d 00 00 00       	pushq  $0xd
  40217b:	e9 10 ff ff ff       	jmpq   402090 <_init+0x28>

0000000000402180 <_ZSt4endlIcSt11char_traitsIcEERSt13basic_ostreamIT_T0_ES6_@plt>:
  402180:	ff 25 a2 b1 21 00    	jmpq   *0x21b1a2(%rip)        # 61d328 <_GLOBAL_OFFSET_TABLE_+0x88>
  402186:	68 0e 00 00 00       	pushq  $0xe
  40218b:	e9 00 ff ff ff       	jmpq   402090 <_init+0x28>

0000000000402190 <glGetError@plt>:
  402190:	ff 25 9a b1 21 00    	jmpq   *0x21b19a(%rip)        # 61d330 <_GLOBAL_OFFSET_TABLE_+0x90>
  402196:	68 0f 00 00 00       	pushq  $0xf
  40219b:	e9 f0 fe ff ff       	jmpq   402090 <_init+0x28>

00000000004021a0 <_ZSt20__throw_length_errorPKc@plt>:
  4021a0:	ff 25 92 b1 21 00    	jmpq   *0x21b192(%rip)        # 61d338 <_GLOBAL_OFFSET_TABLE_+0x98>
  4021a6:	68 10 00 00 00       	pushq  $0x10
  4021ab:	e9 e0 fe ff ff       	jmpq   402090 <_init+0x28>

00000000004021b0 <ilInit@plt>:
  4021b0:	ff 25 8a b1 21 00    	jmpq   *0x21b18a(%rip)        # 61d340 <_GLOBAL_OFFSET_TABLE_+0xa0>
  4021b6:	68 11 00 00 00       	pushq  $0x11
  4021bb:	e9 d0 fe ff ff       	jmpq   402090 <_init+0x28>

00000000004021c0 <SDL_PollEvent@plt>:
  4021c0:	ff 25 82 b1 21 00    	jmpq   *0x21b182(%rip)        # 61d348 <_GLOBAL_OFFSET_TABLE_+0xa8>
  4021c6:	68 12 00 00 00       	pushq  $0x12
  4021cb:	e9 c0 fe ff ff       	jmpq   402090 <_init+0x28>

00000000004021d0 <glGetString@plt>:
  4021d0:	ff 25 7a b1 21 00    	jmpq   *0x21b17a(%rip)        # 61d350 <_GLOBAL_OFFSET_TABLE_+0xb0>
  4021d6:	68 13 00 00 00       	pushq  $0x13
  4021db:	e9 b0 fe ff ff       	jmpq   402090 <_init+0x28>

00000000004021e0 <__assert_fail@plt>:
  4021e0:	ff 25 72 b1 21 00    	jmpq   *0x21b172(%rip)        # 61d358 <_GLOBAL_OFFSET_TABLE_+0xb8>
  4021e6:	68 14 00 00 00       	pushq  $0x14
  4021eb:	e9 a0 fe ff ff       	jmpq   402090 <_init+0x28>

00000000004021f0 <SDL_GetError@plt>:
  4021f0:	ff 25 6a b1 21 00    	jmpq   *0x21b16a(%rip)        # 61d360 <_GLOBAL_OFFSET_TABLE_+0xc0>
  4021f6:	68 15 00 00 00       	pushq  $0x15
  4021fb:	e9 90 fe ff ff       	jmpq   402090 <_init+0x28>

0000000000402200 <ilClearColour@plt>:
  402200:	ff 25 62 b1 21 00    	jmpq   *0x21b162(%rip)        # 61d368 <_GLOBAL_OFFSET_TABLE_+0xc8>
  402206:	68 16 00 00 00       	pushq  $0x16
  40220b:	e9 80 fe ff ff       	jmpq   402090 <_init+0x28>

0000000000402210 <glewInit@plt>:
  402210:	ff 25 5a b1 21 00    	jmpq   *0x21b15a(%rip)        # 61d370 <_GLOBAL_OFFSET_TABLE_+0xd0>
  402216:	68 17 00 00 00       	pushq  $0x17
  40221b:	e9 70 fe ff ff       	jmpq   402090 <_init+0x28>

0000000000402220 <__cxa_atexit@plt>:
  402220:	ff 25 52 b1 21 00    	jmpq   *0x21b152(%rip)        # 61d378 <_GLOBAL_OFFSET_TABLE_+0xd8>
  402226:	68 18 00 00 00       	pushq  $0x18
  40222b:	e9 60 fe ff ff       	jmpq   402090 <_init+0x28>

0000000000402230 <SDL_Init@plt>:
  402230:	ff 25 4a b1 21 00    	jmpq   *0x21b14a(%rip)        # 61d380 <_GLOBAL_OFFSET_TABLE_+0xe0>
  402236:	68 19 00 00 00       	pushq  $0x19
  40223b:	e9 50 fe ff ff       	jmpq   402090 <_init+0x28>

0000000000402240 <glEnable@plt>:
  402240:	ff 25 42 b1 21 00    	jmpq   *0x21b142(%rip)        # 61d388 <_GLOBAL_OFFSET_TABLE_+0xe8>
  402246:	68 1a 00 00 00       	pushq  $0x1a
  40224b:	e9 40 fe ff ff       	jmpq   402090 <_init+0x28>

0000000000402250 <_ZdlPv@plt>:
  402250:	ff 25 3a b1 21 00    	jmpq   *0x21b13a(%rip)        # 61d390 <_GLOBAL_OFFSET_TABLE_+0xf0>
  402256:	68 1b 00 00 00       	pushq  $0x1b
  40225b:	e9 30 fe ff ff       	jmpq   402090 <_init+0x28>

0000000000402260 <_ZStlsISt11char_traitsIcEERSt13basic_ostreamIcT_ES5_PKc@plt>:
  402260:	ff 25 32 b1 21 00    	jmpq   *0x21b132(%rip)        # 61d398 <_GLOBAL_OFFSET_TABLE_+0xf8>
  402266:	68 1c 00 00 00       	pushq  $0x1c
  40226b:	e9 20 fe ff ff       	jmpq   402090 <_init+0x28>

0000000000402270 <_Znwm@plt>:
  402270:	ff 25 2a b1 21 00    	jmpq   *0x21b12a(%rip)        # 61d3a0 <_GLOBAL_OFFSET_TABLE_+0x100>
  402276:	68 1d 00 00 00       	pushq  $0x1d
  40227b:	e9 10 fe ff ff       	jmpq   402090 <_init+0x28>

0000000000402280 <glDrawElements@plt>:
  402280:	ff 25 22 b1 21 00    	jmpq   *0x21b122(%rip)        # 61d3a8 <_GLOBAL_OFFSET_TABLE_+0x108>
  402286:	68 1e 00 00 00       	pushq  $0x1e
  40228b:	e9 00 fe ff ff       	jmpq   402090 <_init+0x28>

0000000000402290 <_ZStlsISt11char_traitsIcEERSt13basic_ostreamIcT_ES5_PKh@plt>:
  402290:	ff 25 1a b1 21 00    	jmpq   *0x21b11a(%rip)        # 61d3b0 <_GLOBAL_OFFSET_TABLE_+0x110>
  402296:	68 1f 00 00 00       	pushq  $0x1f
  40229b:	e9 f0 fd ff ff       	jmpq   402090 <_init+0x28>

00000000004022a0 <_ZNSolsEPFRSoS_E@plt>:
  4022a0:	ff 25 12 b1 21 00    	jmpq   *0x21b112(%rip)        # 61d3b8 <_GLOBAL_OFFSET_TABLE_+0x118>
  4022a6:	68 20 00 00 00       	pushq  $0x20
  4022ab:	e9 e0 fd ff ff       	jmpq   402090 <_init+0x28>

00000000004022b0 <_ZNSaIcED1Ev@plt>:
  4022b0:	ff 25 0a b1 21 00    	jmpq   *0x21b10a(%rip)        # 61d3c0 <_GLOBAL_OFFSET_TABLE_+0x120>
  4022b6:	68 21 00 00 00       	pushq  $0x21
  4022bb:	e9 d0 fd ff ff       	jmpq   402090 <_init+0x28>

00000000004022c0 <_ZNSsC1EPKcRKSaIcE@plt>:
  4022c0:	ff 25 02 b1 21 00    	jmpq   *0x21b102(%rip)        # 61d3c8 <_GLOBAL_OFFSET_TABLE_+0x128>
  4022c6:	68 22 00 00 00       	pushq  $0x22
  4022cb:	e9 c0 fd ff ff       	jmpq   402090 <_init+0x28>

00000000004022d0 <_ZdaPv@plt>:
  4022d0:	ff 25 fa b0 21 00    	jmpq   *0x21b0fa(%rip)        # 61d3d0 <_GLOBAL_OFFSET_TABLE_+0x130>
  4022d6:	68 23 00 00 00       	pushq  $0x23
  4022db:	e9 b0 fd ff ff       	jmpq   402090 <_init+0x28>

00000000004022e0 <_ZStlsIcSt11char_traitsIcESaIcEERSt13basic_ostreamIT_T0_ES7_RKSbIS4_S5_T1_E@plt>:
  4022e0:	ff 25 f2 b0 21 00    	jmpq   *0x21b0f2(%rip)        # 61d3d8 <_GLOBAL_OFFSET_TABLE_+0x138>
  4022e6:	68 24 00 00 00       	pushq  $0x24
  4022eb:	e9 a0 fd ff ff       	jmpq   402090 <_init+0x28>

00000000004022f0 <_ZNSolsEj@plt>:
  4022f0:	ff 25 ea b0 21 00    	jmpq   *0x21b0ea(%rip)        # 61d3e0 <_GLOBAL_OFFSET_TABLE_+0x140>
  4022f6:	68 25 00 00 00       	pushq  $0x25
  4022fb:	e9 90 fd ff ff       	jmpq   402090 <_init+0x28>

0000000000402300 <ilGetError@plt>:
  402300:	ff 25 e2 b0 21 00    	jmpq   *0x21b0e2(%rip)        # 61d3e8 <_GLOBAL_OFFSET_TABLE_+0x148>
  402306:	68 26 00 00 00       	pushq  $0x26
  40230b:	e9 80 fd ff ff       	jmpq   402090 <_init+0x28>

0000000000402310 <_ZNKSs5c_strEv@plt>:
  402310:	ff 25 da b0 21 00    	jmpq   *0x21b0da(%rip)        # 61d3f0 <_GLOBAL_OFFSET_TABLE_+0x150>
  402316:	68 27 00 00 00       	pushq  $0x27
  40231b:	e9 70 fd ff ff       	jmpq   402090 <_init+0x28>

0000000000402320 <glewGetErrorString@plt>:
  402320:	ff 25 d2 b0 21 00    	jmpq   *0x21b0d2(%rip)        # 61d3f8 <_GLOBAL_OFFSET_TABLE_+0x158>
  402326:	68 28 00 00 00       	pushq  $0x28
  40232b:	e9 60 fd ff ff       	jmpq   402090 <_init+0x28>

0000000000402330 <SDL_GL_SwapWindow@plt>:
  402330:	ff 25 ca b0 21 00    	jmpq   *0x21b0ca(%rip)        # 61d400 <_GLOBAL_OFFSET_TABLE_+0x160>
  402336:	68 29 00 00 00       	pushq  $0x29
  40233b:	e9 50 fd ff ff       	jmpq   402090 <_init+0x28>

0000000000402340 <tanf@plt>:
  402340:	ff 25 c2 b0 21 00    	jmpq   *0x21b0c2(%rip)        # 61d408 <_GLOBAL_OFFSET_TABLE_+0x168>
  402346:	68 2a 00 00 00       	pushq  $0x2a
  40234b:	e9 40 fd ff ff       	jmpq   402090 <_init+0x28>

0000000000402350 <__cxa_rethrow@plt>:
  402350:	ff 25 ba b0 21 00    	jmpq   *0x21b0ba(%rip)        # 61d410 <_GLOBAL_OFFSET_TABLE_+0x170>
  402356:	68 2b 00 00 00       	pushq  $0x2b
  40235b:	e9 30 fd ff ff       	jmpq   402090 <_init+0x28>

0000000000402360 <glClearColor@plt>:
  402360:	ff 25 b2 b0 21 00    	jmpq   *0x21b0b2(%rip)        # 61d418 <_GLOBAL_OFFSET_TABLE_+0x178>
  402366:	68 2c 00 00 00       	pushq  $0x2c
  40236b:	e9 20 fd ff ff       	jmpq   402090 <_init+0x28>

0000000000402370 <_ZNSt8ios_base4InitC1Ev@plt>:
  402370:	ff 25 aa b0 21 00    	jmpq   *0x21b0aa(%rip)        # 61d420 <_GLOBAL_OFFSET_TABLE_+0x180>
  402376:	68 2d 00 00 00       	pushq  $0x2d
  40237b:	e9 10 fd ff ff       	jmpq   402090 <_init+0x28>

0000000000402380 <_ZNSsD1Ev@plt>:
  402380:	ff 25 a2 b0 21 00    	jmpq   *0x21b0a2(%rip)        # 61d428 <_GLOBAL_OFFSET_TABLE_+0x188>
  402386:	68 2e 00 00 00       	pushq  $0x2e
  40238b:	e9 00 fd ff ff       	jmpq   402090 <_init+0x28>

0000000000402390 <__cxa_end_catch@plt>:
  402390:	ff 25 9a b0 21 00    	jmpq   *0x21b09a(%rip)        # 61d430 <_GLOBAL_OFFSET_TABLE_+0x190>
  402396:	68 2f 00 00 00       	pushq  $0x2f
  40239b:	e9 f0 fc ff ff       	jmpq   402090 <_init+0x28>

00000000004023a0 <__gxx_personality_v0@plt>:
  4023a0:	ff 25 92 b0 21 00    	jmpq   *0x21b092(%rip)        # 61d438 <_GLOBAL_OFFSET_TABLE_+0x198>
  4023a6:	68 30 00 00 00       	pushq  $0x30
  4023ab:	e9 e0 fc ff ff       	jmpq   402090 <_init+0x28>

00000000004023b0 <SDL_GL_SetAttribute@plt>:
  4023b0:	ff 25 8a b0 21 00    	jmpq   *0x21b08a(%rip)        # 61d440 <_GLOBAL_OFFSET_TABLE_+0x1a0>
  4023b6:	68 31 00 00 00       	pushq  $0x31
  4023bb:	e9 d0 fc ff ff       	jmpq   402090 <_init+0x28>

00000000004023c0 <_ZNSolsEi@plt>:
  4023c0:	ff 25 82 b0 21 00    	jmpq   *0x21b082(%rip)        # 61d448 <_GLOBAL_OFFSET_TABLE_+0x1a8>
  4023c6:	68 32 00 00 00       	pushq  $0x32
  4023cb:	e9 c0 fc ff ff       	jmpq   402090 <_init+0x28>

00000000004023d0 <iluInit@plt>:
  4023d0:	ff 25 7a b0 21 00    	jmpq   *0x21b07a(%rip)        # 61d450 <_GLOBAL_OFFSET_TABLE_+0x1b0>
  4023d6:	68 33 00 00 00       	pushq  $0x33
  4023db:	e9 b0 fc ff ff       	jmpq   402090 <_init+0x28>

00000000004023e0 <_Unwind_Resume@plt>:
  4023e0:	ff 25 72 b0 21 00    	jmpq   *0x21b072(%rip)        # 61d458 <_GLOBAL_OFFSET_TABLE_+0x1b8>
  4023e6:	68 34 00 00 00       	pushq  $0x34
  4023eb:	e9 a0 fc ff ff       	jmpq   402090 <_init+0x28>

00000000004023f0 <_ZNSaIcEC1Ev@plt>:
  4023f0:	ff 25 6a b0 21 00    	jmpq   *0x21b06a(%rip)        # 61d460 <_GLOBAL_OFFSET_TABLE_+0x1c0>
  4023f6:	68 35 00 00 00       	pushq  $0x35
  4023fb:	e9 90 fc ff ff       	jmpq   402090 <_init+0x28>

0000000000402400 <iluErrorString@plt>:
  402400:	ff 25 62 b0 21 00    	jmpq   *0x21b062(%rip)        # 61d468 <_GLOBAL_OFFSET_TABLE_+0x1c8>
  402406:	68 36 00 00 00       	pushq  $0x36
  40240b:	e9 80 fc ff ff       	jmpq   402090 <_init+0x28>

0000000000402410 <__libc_start_main@plt>:
  402410:	ff 25 5a b0 21 00    	jmpq   *0x21b05a(%rip)        # 61d470 <_GLOBAL_OFFSET_TABLE_+0x1d0>
  402416:	68 37 00 00 00       	pushq  $0x37
  40241b:	e9 70 fc ff ff       	jmpq   402090 <_init+0x28>

0000000000402420 <__gmon_start__@plt>:
  402420:	ff 25 52 b0 21 00    	jmpq   *0x21b052(%rip)        # 61d478 <_GLOBAL_OFFSET_TABLE_+0x1d8>
  402426:	68 38 00 00 00       	pushq  $0x38
  40242b:	e9 60 fc ff ff       	jmpq   402090 <_init+0x28>

0000000000402430 <SDL_GL_MakeCurrent@plt>:
  402430:	ff 25 4a b0 21 00    	jmpq   *0x21b04a(%rip)        # 61d480 <_GLOBAL_OFFSET_TABLE_+0x1e0>
  402436:	68 39 00 00 00       	pushq  $0x39
  40243b:	e9 50 fc ff ff       	jmpq   402090 <_init+0x28>

0000000000402440 <_ZNKSs6lengthEv@plt>:
  402440:	ff 25 42 b0 21 00    	jmpq   *0x21b042(%rip)        # 61d488 <_GLOBAL_OFFSET_TABLE_+0x1e8>
  402446:	68 3a 00 00 00       	pushq  $0x3a
  40244b:	e9 40 fc ff ff       	jmpq   402090 <_init+0x28>

0000000000402450 <_ZNSt8ios_base4InitD1Ev@plt>:
  402450:	ff 25 3a b0 21 00    	jmpq   *0x21b03a(%rip)        # 61d490 <_GLOBAL_OFFSET_TABLE_+0x1f0>
  402456:	68 3b 00 00 00       	pushq  $0x3b
  40245b:	e9 30 fc ff ff       	jmpq   402090 <_init+0x28>

Disassembly of section .text:

0000000000402460 <__cxx_global_var_init>:
  402460:	55                   	push   %rbp
  402461:	48 89 e5             	mov    %rsp,%rbp
  402464:	48 83 ec 10          	sub    $0x10,%rsp
  402468:	48 bf d8 d7 61 00 00 	movabs $0x61d7d8,%rdi
  40246f:	00 00 00 
  402472:	e8 f9 fe ff ff       	callq  402370 <_ZNSt8ios_base4InitC1Ev@plt>
  402477:	48 bf 50 24 40 00 00 	movabs $0x402450,%rdi
  40247e:	00 00 00 
  402481:	48 be d8 d7 61 00 00 	movabs $0x61d7d8,%rsi
  402488:	00 00 00 
  40248b:	48 ba a0 d4 61 00 00 	movabs $0x61d4a0,%rdx
  402492:	00 00 00 
  402495:	e8 86 fd ff ff       	callq  402220 <__cxa_atexit@plt>
  40249a:	89 45 fc             	mov    %eax,-0x4(%rbp)
  40249d:	48 83 c4 10          	add    $0x10,%rsp
  4024a1:	5d                   	pop    %rbp
  4024a2:	c3                   	retq   
  4024a3:	66 66 66 66 2e 0f 1f 	data16 data16 data16 nopw %cs:0x0(%rax,%rax,1)
  4024aa:	84 00 00 00 00 00 

00000000004024b0 <_GLOBAL__sub_I_gl_debug.cpp>:
  4024b0:	55                   	push   %rbp
  4024b1:	48 89 e5             	mov    %rsp,%rbp
  4024b4:	e8 a7 ff ff ff       	callq  402460 <__cxx_global_var_init>
  4024b9:	5d                   	pop    %rbp
  4024ba:	c3                   	retq   
  4024bb:	0f 1f 44 00 00       	nopl   0x0(%rax,%rax,1)

00000000004024c0 <__cxx_global_var_init>:
  4024c0:	55                   	push   %rbp
  4024c1:	48 89 e5             	mov    %rsp,%rbp
  4024c4:	48 83 ec 10          	sub    $0x10,%rsp
  4024c8:	48 bf e1 d7 61 00 00 	movabs $0x61d7e1,%rdi
  4024cf:	00 00 00 
  4024d2:	e8 99 fe ff ff       	callq  402370 <_ZNSt8ios_base4InitC1Ev@plt>
  4024d7:	48 bf 50 24 40 00 00 	movabs $0x402450,%rdi
  4024de:	00 00 00 
  4024e1:	48 be e1 d7 61 00 00 	movabs $0x61d7e1,%rsi
  4024e8:	00 00 00 
  4024eb:	48 ba a0 d4 61 00 00 	movabs $0x61d4a0,%rdx
  4024f2:	00 00 00 
  4024f5:	e8 26 fd ff ff       	callq  402220 <__cxa_atexit@plt>
  4024fa:	89 45 fc             	mov    %eax,-0x4(%rbp)
  4024fd:	48 83 c4 10          	add    $0x10,%rsp
  402501:	5d                   	pop    %rbp
  402502:	c3                   	retq   
  402503:	66 66 66 66 2e 0f 1f 	data16 data16 data16 nopw %cs:0x0(%rax,%rax,1)
  40250a:	84 00 00 00 00 00 

0000000000402510 <__cxx_global_var_init1>:
  402510:	55                   	push   %rbp
  402511:	48 89 e5             	mov    %rsp,%rbp
  402514:	48 bf e0 d7 61 00 00 	movabs $0x61d7e0,%rdi
  40251b:	00 00 00 
  40251e:	e8 3d 13 00 00       	callq  403860 <_ZN7jikoLib5GLLib8GLObjectC2Ev>
  402523:	5d                   	pop    %rbp
  402524:	c3                   	retq   
  402525:	66 66 2e 0f 1f 84 00 	data16 nopw %cs:0x0(%rax,%rax,1)
  40252c:	00 00 00 00 

0000000000402530 <__cxx_global_var_init2>:
  402530:	55                   	push   %rbp
  402531:	48 89 e5             	mov    %rsp,%rbp
  402534:	48 83 ec 30          	sub    $0x30,%rsp
  402538:	48 8d 45 f8          	lea    -0x8(%rbp),%rax
  40253c:	48 89 c7             	mov    %rax,%rdi
  40253f:	48 89 45 e0          	mov    %rax,-0x20(%rbp)
  402543:	e8 a8 fe ff ff       	callq  4023f0 <_ZNSaIcEC1Ev@plt>
  402548:	b9 e8 d7 61 00       	mov    $0x61d7e8,%ecx
  40254d:	89 cf                	mov    %ecx,%edi
  40254f:	b9 d0 8a 41 00       	mov    $0x418ad0,%ecx
  402554:	89 ce                	mov    %ecx,%esi
  402556:	48 8b 55 e0          	mov    -0x20(%rbp),%rdx
  40255a:	e8 61 fd ff ff       	callq  4022c0 <_ZNSsC1EPKcRKSaIcE@plt>
  40255f:	e9 00 00 00 00       	jmpq   402564 <__cxx_global_var_init2+0x34>
  402564:	48 8d 7d f8          	lea    -0x8(%rbp),%rdi
  402568:	e8 43 fd ff ff       	callq  4022b0 <_ZNSaIcED1Ev@plt>
  40256d:	48 bf 80 23 40 00 00 	movabs $0x402380,%rdi
  402574:	00 00 00 
  402577:	48 b8 e8 d7 61 00 00 	movabs $0x61d7e8,%rax
  40257e:	00 00 00 
  402581:	48 ba a0 d4 61 00 00 	movabs $0x61d4a0,%rdx
  402588:	00 00 00 
  40258b:	48 89 c6             	mov    %rax,%rsi
  40258e:	e8 8d fc ff ff       	callq  402220 <__cxa_atexit@plt>
  402593:	89 45 dc             	mov    %eax,-0x24(%rbp)
  402596:	48 83 c4 30          	add    $0x30,%rsp
  40259a:	5d                   	pop    %rbp
  40259b:	c3                   	retq   
  40259c:	48 8d 7d f8          	lea    -0x8(%rbp),%rdi
  4025a0:	89 d1                	mov    %edx,%ecx
  4025a2:	48 89 45 f0          	mov    %rax,-0x10(%rbp)
  4025a6:	89 4d ec             	mov    %ecx,-0x14(%rbp)
  4025a9:	e8 02 fd ff ff       	callq  4022b0 <_ZNSaIcED1Ev@plt>
  4025ae:	48 8b 7d f0          	mov    -0x10(%rbp),%rdi
  4025b2:	e8 29 fe ff ff       	callq  4023e0 <_Unwind_Resume@plt>
  4025b7:	66 0f 1f 84 00 00 00 	nopw   0x0(%rax,%rax,1)
  4025be:	00 00 

00000000004025c0 <__cxx_global_var_init3>:
  4025c0:	55                   	push   %rbp
  4025c1:	48 89 e5             	mov    %rsp,%rbp
  4025c4:	48 83 ec 30          	sub    $0x30,%rsp
  4025c8:	48 8d 45 f8          	lea    -0x8(%rbp),%rax
  4025cc:	48 89 c7             	mov    %rax,%rdi
  4025cf:	48 89 45 e0          	mov    %rax,-0x20(%rbp)
  4025d3:	e8 18 fe ff ff       	callq  4023f0 <_ZNSaIcEC1Ev@plt>
  4025d8:	b9 f0 d7 61 00       	mov    $0x61d7f0,%ecx
  4025dd:	89 cf                	mov    %ecx,%edi
  4025df:	b9 10 8c 41 00       	mov    $0x418c10,%ecx
  4025e4:	89 ce                	mov    %ecx,%esi
  4025e6:	48 8b 55 e0          	mov    -0x20(%rbp),%rdx
  4025ea:	e8 d1 fc ff ff       	callq  4022c0 <_ZNSsC1EPKcRKSaIcE@plt>
  4025ef:	e9 00 00 00 00       	jmpq   4025f4 <__cxx_global_var_init3+0x34>
  4025f4:	48 8d 7d f8          	lea    -0x8(%rbp),%rdi
  4025f8:	e8 b3 fc ff ff       	callq  4022b0 <_ZNSaIcED1Ev@plt>
  4025fd:	48 bf 80 23 40 00 00 	movabs $0x402380,%rdi
  402604:	00 00 00 
  402607:	48 b8 f0 d7 61 00 00 	movabs $0x61d7f0,%rax
  40260e:	00 00 00 
  402611:	48 ba a0 d4 61 00 00 	movabs $0x61d4a0,%rdx
  402618:	00 00 00 
  40261b:	48 89 c6             	mov    %rax,%rsi
  40261e:	e8 fd fb ff ff       	callq  402220 <__cxa_atexit@plt>
  402623:	89 45 dc             	mov    %eax,-0x24(%rbp)
  402626:	48 83 c4 30          	add    $0x30,%rsp
  40262a:	5d                   	pop    %rbp
  40262b:	c3                   	retq   
  40262c:	48 8d 7d f8          	lea    -0x8(%rbp),%rdi
  402630:	89 d1                	mov    %edx,%ecx
  402632:	48 89 45 f0          	mov    %rax,-0x10(%rbp)
  402636:	89 4d ec             	mov    %ecx,-0x14(%rbp)
  402639:	e8 72 fc ff ff       	callq  4022b0 <_ZNSaIcED1Ev@plt>
  40263e:	48 8b 7d f0          	mov    -0x10(%rbp),%rdi
  402642:	e8 99 fd ff ff       	callq  4023e0 <_Unwind_Resume@plt>
  402647:	66 0f 1f 84 00 00 00 	nopw   0x0(%rax,%rax,1)
  40264e:	00 00 

0000000000402650 <_GLOBAL__sub_I_main.cpp>:
  402650:	55                   	push   %rbp
  402651:	48 89 e5             	mov    %rsp,%rbp
  402654:	e8 67 fe ff ff       	callq  4024c0 <__cxx_global_var_init>
  402659:	e8 b2 fe ff ff       	callq  402510 <__cxx_global_var_init1>
  40265e:	e8 cd fe ff ff       	callq  402530 <__cxx_global_var_init2>
  402663:	e8 58 ff ff ff       	callq  4025c0 <__cxx_global_var_init3>
  402668:	5d                   	pop    %rbp
  402669:	c3                   	retq   

000000000040266a <_start>:
  40266a:	31 ed                	xor    %ebp,%ebp
  40266c:	49 89 d1             	mov    %rdx,%r9
  40266f:	5e                   	pop    %rsi
  402670:	48 89 e2             	mov    %rsp,%rdx
  402673:	48 83 e4 f0          	and    $0xfffffffffffffff0,%rsp
  402677:	50                   	push   %rax
  402678:	54                   	push   %rsp
  402679:	49 c7 c0 60 8a 41 00 	mov    $0x418a60,%r8
  402680:	48 c7 c1 f0 89 41 00 	mov    $0x4189f0,%rcx
  402687:	48 c7 c7 80 27 40 00 	mov    $0x402780,%rdi
  40268e:	e8 7d fd ff ff       	callq  402410 <__libc_start_main@plt>
  402693:	f4                   	hlt    
  402694:	66 2e 0f 1f 84 00 00 	nopw   %cs:0x0(%rax,%rax,1)
  40269b:	00 00 00 
  40269e:	66 90                	xchg   %ax,%ax

00000000004026a0 <deregister_tm_clones>:
  4026a0:	b8 af d4 61 00       	mov    $0x61d4af,%eax
  4026a5:	55                   	push   %rbp
  4026a6:	48 2d a8 d4 61 00    	sub    $0x61d4a8,%rax
  4026ac:	48 83 f8 0e          	cmp    $0xe,%rax
  4026b0:	48 89 e5             	mov    %rsp,%rbp
  4026b3:	76 1b                	jbe    4026d0 <deregister_tm_clones+0x30>
  4026b5:	b8 00 00 00 00       	mov    $0x0,%eax
  4026ba:	48 85 c0             	test   %rax,%rax
  4026bd:	74 11                	je     4026d0 <deregister_tm_clones+0x30>
  4026bf:	5d                   	pop    %rbp
  4026c0:	bf a8 d4 61 00       	mov    $0x61d4a8,%edi
  4026c5:	ff e0                	jmpq   *%rax
  4026c7:	66 0f 1f 84 00 00 00 	nopw   0x0(%rax,%rax,1)
  4026ce:	00 00 
  4026d0:	5d                   	pop    %rbp
  4026d1:	c3                   	retq   
  4026d2:	66 66 66 66 66 2e 0f 	data16 data16 data16 data16 nopw %cs:0x0(%rax,%rax,1)
  4026d9:	1f 84 00 00 00 00 00 

00000000004026e0 <register_tm_clones>:
  4026e0:	be a8 d4 61 00       	mov    $0x61d4a8,%esi
  4026e5:	55                   	push   %rbp
  4026e6:	48 81 ee a8 d4 61 00 	sub    $0x61d4a8,%rsi
  4026ed:	48 c1 fe 03          	sar    $0x3,%rsi
  4026f1:	48 89 e5             	mov    %rsp,%rbp
  4026f4:	48 89 f0             	mov    %rsi,%rax
  4026f7:	48 c1 e8 3f          	shr    $0x3f,%rax
  4026fb:	48 01 c6             	add    %rax,%rsi
  4026fe:	48 d1 fe             	sar    %rsi
  402701:	74 15                	je     402718 <register_tm_clones+0x38>
  402703:	b8 00 00 00 00       	mov    $0x0,%eax
  402708:	48 85 c0             	test   %rax,%rax
  40270b:	74 0b                	je     402718 <register_tm_clones+0x38>
  40270d:	5d                   	pop    %rbp
  40270e:	bf a8 d4 61 00       	mov    $0x61d4a8,%edi
  402713:	ff e0                	jmpq   *%rax
  402715:	0f 1f 00             	nopl   (%rax)
  402718:	5d                   	pop    %rbp
  402719:	c3                   	retq   
  40271a:	66 0f 1f 44 00 00    	nopw   0x0(%rax,%rax,1)

0000000000402720 <__do_global_dtors_aux>:
  402720:	80 3d a9 b0 21 00 00 	cmpb   $0x0,0x21b0a9(%rip)        # 61d7d0 <completed.6627>
  402727:	75 11                	jne    40273a <__do_global_dtors_aux+0x1a>
  402729:	55                   	push   %rbp
  40272a:	48 89 e5             	mov    %rsp,%rbp
  40272d:	e8 6e ff ff ff       	callq  4026a0 <deregister_tm_clones>
  402732:	5d                   	pop    %rbp
  402733:	c6 05 96 b0 21 00 01 	movb   $0x1,0x21b096(%rip)        # 61d7d0 <completed.6627>
  40273a:	f3 c3                	repz retq 
  40273c:	0f 1f 40 00          	nopl   0x0(%rax)

0000000000402740 <frame_dummy>:
  402740:	bf 20 d0 61 00       	mov    $0x61d020,%edi
  402745:	48 83 3f 00          	cmpq   $0x0,(%rdi)
  402749:	75 05                	jne    402750 <frame_dummy+0x10>
  40274b:	eb 93                	jmp    4026e0 <register_tm_clones>
  40274d:	0f 1f 00             	nopl   (%rax)
  402750:	b8 00 00 00 00       	mov    $0x0,%eax
  402755:	48 85 c0             	test   %rax,%rax
  402758:	74 f1                	je     40274b <frame_dummy+0xb>
  40275a:	55                   	push   %rbp
  40275b:	48 89 e5             	mov    %rsp,%rbp
  40275e:	ff d0                	callq  *%rax
  402760:	5d                   	pop    %rbp
  402761:	e9 7a ff ff ff       	jmpq   4026e0 <register_tm_clones>
  402766:	66 90                	xchg   %ax,%ax
  402768:	0f 1f 84 00 00 00 00 	nopl   0x0(%rax,%rax,1)
  40276f:	00 

0000000000402770 <_Z14threadfunctionPv>:
  402770:	55                   	push   %rbp
  402771:	48 89 e5             	mov    %rsp,%rbp
  402774:	b8 00 00 00 00       	mov    $0x0,%eax
  402779:	48 89 7d f8          	mov    %rdi,-0x8(%rbp)
  40277d:	5d                   	pop    %rbp
  40277e:	c3                   	retq   
  40277f:	90                   	nop

0000000000402780 <main>:
  402780:	55                   	push   %rbp
  402781:	48 89 e5             	mov    %rsp,%rbp
  402784:	48 81 ec c0 05 00 00 	sub    $0x5c0,%rsp
  40278b:	b8 31 72 00 00       	mov    $0x7231,%eax
  402790:	c7 45 fc 00 00 00 00 	movl   $0x0,-0x4(%rbp)
  402797:	89 7d f8             	mov    %edi,-0x8(%rbp)
  40279a:	48 89 75 f0          	mov    %rsi,-0x10(%rbp)
  40279e:	89 c7                	mov    %eax,%edi
  4027a0:	e8 8b fa ff ff       	callq  402230 <SDL_Init@plt>
  4027a5:	3d 00 00 00 00       	cmp    $0x0,%eax
  4027aa:	0f 8d 59 00 00 00    	jge    402809 <main+0x89>
  4027b0:	48 bf c0 d6 61 00 00 	movabs $0x61d6c0,%rdi
  4027b7:	00 00 00 
  4027ba:	48 be 7d 8c 41 00 00 	movabs $0x418c7d,%rsi
  4027c1:	00 00 00 
  4027c4:	e8 97 fa ff ff       	callq  402260 <_ZStlsISt11char_traitsIcEERSt13basic_ostreamIcT_ES5_PKc@plt>
  4027c9:	48 89 85 98 fc ff ff 	mov    %rax,-0x368(%rbp)
  4027d0:	e8 1b fa ff ff       	callq  4021f0 <SDL_GetError@plt>
  4027d5:	48 8b bd 98 fc ff ff 	mov    -0x368(%rbp),%rdi
  4027dc:	48 89 c6             	mov    %rax,%rsi
  4027df:	e8 7c fa ff ff       	callq  402260 <_ZStlsISt11char_traitsIcEERSt13basic_ostreamIcT_ES5_PKc@plt>
  4027e4:	48 be 80 21 40 00 00 	movabs $0x402180,%rsi
  4027eb:	00 00 00 
  4027ee:	48 89 c7             	mov    %rax,%rdi
  4027f1:	e8 aa fa ff ff       	callq  4022a0 <_ZNSolsEPFRSoS_E@plt>
  4027f6:	c7 45 fc ff ff ff ff 	movl   $0xffffffff,-0x4(%rbp)
  4027fd:	48 89 85 90 fc ff ff 	mov    %rax,-0x370(%rbp)
  402804:	e9 3e 10 00 00       	jmpq   403847 <main+0x10c7>
  402809:	bf 00 00 00 00       	mov    $0x0,%edi
  40280e:	be 05 00 00 00       	mov    $0x5,%esi
  402813:	e8 98 fb ff ff       	callq  4023b0 <SDL_GL_SetAttribute@plt>
  402818:	bf 01 00 00 00       	mov    $0x1,%edi
  40281d:	be 05 00 00 00       	mov    $0x5,%esi
  402822:	89 85 8c fc ff ff    	mov    %eax,-0x374(%rbp)
  402828:	e8 83 fb ff ff       	callq  4023b0 <SDL_GL_SetAttribute@plt>
  40282d:	bf 02 00 00 00       	mov    $0x2,%edi
  402832:	be 05 00 00 00       	mov    $0x5,%esi
  402837:	89 85 88 fc ff ff    	mov    %eax,-0x378(%rbp)
  40283d:	e8 6e fb ff ff       	callq  4023b0 <SDL_GL_SetAttribute@plt>
  402842:	bf 06 00 00 00       	mov    $0x6,%edi
  402847:	be 10 00 00 00       	mov    $0x10,%esi
  40284c:	89 85 84 fc ff ff    	mov    %eax,-0x37c(%rbp)
  402852:	e8 59 fb ff ff       	callq  4023b0 <SDL_GL_SetAttribute@plt>
  402857:	bf 05 00 00 00       	mov    $0x5,%edi
  40285c:	be 01 00 00 00       	mov    $0x1,%esi
  402861:	89 85 80 fc ff ff    	mov    %eax,-0x380(%rbp)
  402867:	e8 44 fb ff ff       	callq  4023b0 <SDL_GL_SetAttribute@plt>
  40286c:	48 bf 96 8c 41 00 00 	movabs $0x418c96,%rdi
  402873:	00 00 00 
  402876:	be 00 00 ff 1f       	mov    $0x1fff0000,%esi
  40287b:	b9 90 01 00 00       	mov    $0x190,%ecx
  402880:	41 b9 02 00 00 00    	mov    $0x2,%r9d
  402886:	89 b5 7c fc ff ff    	mov    %esi,-0x384(%rbp)
  40288c:	8b 95 7c fc ff ff    	mov    -0x384(%rbp),%edx
  402892:	89 8d 78 fc ff ff    	mov    %ecx,-0x388(%rbp)
  402898:	44 8b 85 78 fc ff ff 	mov    -0x388(%rbp),%r8d
  40289f:	89 85 74 fc ff ff    	mov    %eax,-0x38c(%rbp)
  4028a5:	e8 26 f8 ff ff       	callq  4020d0 <SDL_CreateWindow@plt>
  4028aa:	48 89 45 e8          	mov    %rax,-0x18(%rbp)
  4028ae:	48 81 7d e8 00 00 00 	cmpq   $0x0,-0x18(%rbp)
  4028b5:	00 
  4028b6:	0f 85 4d 00 00 00    	jne    402909 <main+0x189>
  4028bc:	48 bf c0 d6 61 00 00 	movabs $0x61d6c0,%rdi
  4028c3:	00 00 00 
  4028c6:	48 be a1 8c 41 00 00 	movabs $0x418ca1,%rsi
  4028cd:	00 00 00 
  4028d0:	e8 8b f9 ff ff       	callq  402260 <_ZStlsISt11char_traitsIcEERSt13basic_ostreamIcT_ES5_PKc@plt>
  4028d5:	48 89 85 68 fc ff ff 	mov    %rax,-0x398(%rbp)
  4028dc:	e8 0f f9 ff ff       	callq  4021f0 <SDL_GetError@plt>
  4028e1:	48 8b bd 68 fc ff ff 	mov    -0x398(%rbp),%rdi
  4028e8:	48 89 c6             	mov    %rax,%rsi
  4028eb:	e8 70 f9 ff ff       	callq  402260 <_ZStlsISt11char_traitsIcEERSt13basic_ostreamIcT_ES5_PKc@plt>
  4028f0:	48 be 80 21 40 00 00 	movabs $0x402180,%rsi
  4028f7:	00 00 00 
  4028fa:	48 89 c7             	mov    %rax,%rdi
  4028fd:	e8 9e f9 ff ff       	callq  4022a0 <_ZNSolsEPFRSoS_E@plt>
  402902:	48 89 85 60 fc ff ff 	mov    %rax,-0x3a0(%rbp)
  402909:	48 8b 7d e8          	mov    -0x18(%rbp),%rdi
  40290d:	e8 1e f8 ff ff       	callq  402130 <SDL_GL_CreateContext@plt>
  402912:	48 89 45 e0          	mov    %rax,-0x20(%rbp)
  402916:	b9 e0 d7 61 00       	mov    $0x61d7e0,%ecx
  40291b:	89 cf                	mov    %ecx,%edi
  40291d:	48 8d 75 d8          	lea    -0x28(%rbp),%rsi
  402921:	e8 5a 0f 00 00       	callq  403880 <_ZN7jikoLib5GLLib8GLObjectlsEONS0_5BeginE>
  402926:	bf 01 00 00 00       	mov    $0x1,%edi
  40292b:	48 89 85 58 fc ff ff 	mov    %rax,-0x3a8(%rbp)
  402932:	e8 19 f8 ff ff       	callq  402150 <SDL_GL_SetSwapInterval@plt>
  402937:	48 8b 7d e8          	mov    -0x18(%rbp),%rdi
  40293b:	48 8b 75 e0          	mov    -0x20(%rbp),%rsi
  40293f:	89 85 54 fc ff ff    	mov    %eax,-0x3ac(%rbp)
  402945:	e8 e6 fa ff ff       	callq  402430 <SDL_GL_MakeCurrent@plt>
  40294a:	48 8d 7d c8          	lea    -0x38(%rbp),%rdi
  40294e:	89 85 50 fc ff ff    	mov    %eax,-0x3b0(%rbp)
  402954:	e8 57 0f 00 00       	callq  4038b0 <_ZN7jikoLib5GLLib6ShaderINS0_12VertexShaderENS0_11GLAllocatorINS0_12Alloc_ShaderEEEEC2Ev>
  402959:	48 8d 7d b8          	lea    -0x48(%rbp),%rdi
  40295d:	e8 7e 13 00 00       	callq  403ce0 <_ZN7jikoLib5GLLib6ShaderINS0_14FragmentShaderENS0_11GLAllocatorINS0_12Alloc_ShaderEEEEC2Ev>
  402962:	e9 00 00 00 00       	jmpq   402967 <main+0x1e7>
  402967:	48 8d 7d 98          	lea    -0x68(%rbp),%rdi
  40296b:	e8 a0 17 00 00       	callq  404110 <_ZN7jikoLib5GLLib10ShaderProgINS0_11GLAllocatorINS0_16Alloc_ShaderProgEEEEC2Ev>
  402970:	e9 00 00 00 00       	jmpq   402975 <main+0x1f5>
  402975:	b8 e8 d7 61 00       	mov    $0x61d7e8,%eax
  40297a:	89 c6                	mov    %eax,%esi
  40297c:	48 8d 7d c8          	lea    -0x38(%rbp),%rdi
  402980:	e8 bb 1b 00 00       	callq  404540 <_ZN7jikoLib5GLLib6ShaderINS0_12VertexShaderENS0_11GLAllocatorINS0_12Alloc_ShaderEEEElsERKSs>
  402985:	48 89 85 48 fc ff ff 	mov    %rax,-0x3b8(%rbp)
  40298c:	e9 00 00 00 00       	jmpq   402991 <main+0x211>
  402991:	b8 f0 d7 61 00       	mov    $0x61d7f0,%eax
  402996:	89 c6                	mov    %eax,%esi
  402998:	48 8d 7d b8          	lea    -0x48(%rbp),%rdi
  40299c:	e8 1f 30 00 00       	callq  4059c0 <_ZN7jikoLib5GLLib6ShaderINS0_14FragmentShaderENS0_11GLAllocatorINS0_12Alloc_ShaderEEEElsERKSs>
  4029a1:	48 89 85 40 fc ff ff 	mov    %rax,-0x3c0(%rbp)
  4029a8:	e9 00 00 00 00       	jmpq   4029ad <main+0x22d>
  4029ad:	48 8d 7d 98          	lea    -0x68(%rbp),%rdi
  4029b1:	48 8d 75 c8          	lea    -0x38(%rbp),%rsi
  4029b5:	e8 86 44 00 00       	callq  406e40 <_ZN7jikoLib5GLLib10ShaderProgINS0_11GLAllocatorINS0_16Alloc_ShaderProgEEEElsINS0_12VertexShaderENS2_INS0_12Alloc_ShaderEEEEERS5_RKNS0_6ShaderIT_T0_EE>
  4029ba:	48 89 85 38 fc ff ff 	mov    %rax,-0x3c8(%rbp)
  4029c1:	e9 00 00 00 00       	jmpq   4029c6 <main+0x246>
  4029c6:	48 8d 75 b8          	lea    -0x48(%rbp),%rsi
  4029ca:	48 8b bd 38 fc ff ff 	mov    -0x3c8(%rbp),%rdi
  4029d1:	e8 ca 48 00 00       	callq  4072a0 <_ZN7jikoLib5GLLib10ShaderProgINS0_11GLAllocatorINS0_16Alloc_ShaderProgEEEElsINS0_14FragmentShaderENS2_INS0_12Alloc_ShaderEEEEERS5_RKNS0_6ShaderIT_T0_EE>
  4029d6:	48 89 85 30 fc ff ff 	mov    %rax,-0x3d0(%rbp)
  4029dd:	e9 00 00 00 00       	jmpq   4029e2 <main+0x262>
  4029e2:	48 8d 75 90          	lea    -0x70(%rbp),%rsi
  4029e6:	48 8b bd 30 fc ff ff 	mov    -0x3d0(%rbp),%rdi
  4029ed:	e8 0e 4d 00 00       	callq  407700 <_ZN7jikoLib5GLLib10ShaderProgINS0_11GLAllocatorINS0_16Alloc_ShaderProgEEEElsEONS0_10link_theseE>
  4029f2:	48 89 85 28 fc ff ff 	mov    %rax,-0x3d8(%rbp)
  4029f9:	e9 00 00 00 00       	jmpq   4029fe <main+0x27e>
  4029fe:	48 8d bd b8 fe ff ff 	lea    -0x148(%rbp),%rdi
  402a05:	e8 96 5d 00 00       	callq  4087a0 <_ZN7jikoLib5GLLib6Mesh3DC2Ev>
  402a0a:	e9 00 00 00 00       	jmpq   402a0f <main+0x28f>
  402a0f:	48 8d bd 70 fe ff ff 	lea    -0x190(%rbp),%rdi
  402a16:	f3 0f 10 05 56 60 01 	movss  0x16056(%rip),%xmm0        # 418a74 <_IO_stdin_used+0x4>
  402a1d:	00 
  402a1e:	e8 3d 5f 00 00       	callq  408960 <_ZN7jikoLib5GLLib10MeshSample4CubeC2Ef>
  402a23:	e9 00 00 00 00       	jmpq   402a28 <main+0x2a8>
  402a28:	48 8d bd 70 fe ff ff 	lea    -0x190(%rbp),%rdi
  402a2f:	e8 ac 71 00 00       	callq  409be0 <_ZN7jikoLib5GLLib10MeshSample4Cube9getVertexEv>
  402a34:	48 89 85 20 fc ff ff 	mov    %rax,-0x3e0(%rbp)
  402a3b:	e9 00 00 00 00       	jmpq   402a40 <main+0x2c0>
  402a40:	48 8d bd 70 fe ff ff 	lea    -0x190(%rbp),%rdi
  402a47:	e8 b4 71 00 00       	callq  409c00 <_ZN7jikoLib5GLLib10MeshSample4Cube9getNormalEv>
  402a4c:	48 89 85 18 fc ff ff 	mov    %rax,-0x3e8(%rbp)
  402a53:	e9 00 00 00 00       	jmpq   402a58 <main+0x2d8>
  402a58:	48 8d bd 70 fe ff ff 	lea    -0x190(%rbp),%rdi
  402a5f:	e8 cc 71 00 00       	callq  409c30 <_ZN7jikoLib5GLLib10MeshSample4Cube12getNumVertexEv>
  402a64:	48 89 85 10 fc ff ff 	mov    %rax,-0x3f0(%rbp)
  402a6b:	e9 00 00 00 00       	jmpq   402a70 <main+0x2f0>
  402a70:	48 8d bd b8 fe ff ff 	lea    -0x148(%rbp),%rdi
  402a77:	48 8b b5 20 fc ff ff 	mov    -0x3e0(%rbp),%rsi
  402a7e:	48 8b 95 18 fc ff ff 	mov    -0x3e8(%rbp),%rdx
  402a85:	48 8b 8d 10 fc ff ff 	mov    -0x3f0(%rbp),%rcx
  402a8c:	e8 df 70 00 00       	callq  409b70 <_ZN7jikoLib5GLLib6Mesh3D8copyDataIfEEvPKT_S5_m>
  402a91:	e9 00 00 00 00       	jmpq   402a96 <main+0x316>
  402a96:	48 8d bd 70 fe ff ff 	lea    -0x190(%rbp),%rdi
  402a9d:	e8 fe 71 00 00       	callq  409ca0 <_ZN7jikoLib5GLLib10MeshSample4Cube8getIndexEv>
  402aa2:	48 89 85 08 fc ff ff 	mov    %rax,-0x3f8(%rbp)
  402aa9:	e9 00 00 00 00       	jmpq   402aae <main+0x32e>
  402aae:	48 8d bd 70 fe ff ff 	lea    -0x190(%rbp),%rdi
  402ab5:	e8 16 72 00 00       	callq  409cd0 <_ZN7jikoLib5GLLib10MeshSample4Cube11getNumIndexEv>
  402aba:	48 89 85 00 fc ff ff 	mov    %rax,-0x400(%rbp)
  402ac1:	e9 00 00 00 00       	jmpq   402ac6 <main+0x346>
  402ac6:	48 8d bd b8 fe ff ff 	lea    -0x148(%rbp),%rdi
  402acd:	48 8b b5 08 fc ff ff 	mov    -0x3f8(%rbp),%rsi
  402ad4:	48 8b 95 00 fc ff ff 	mov    -0x400(%rbp),%rdx
  402adb:	e8 70 71 00 00       	callq  409c50 <_ZN7jikoLib5GLLib6Mesh3D9copyIndexItEEvPKT_m>
  402ae0:	e9 00 00 00 00       	jmpq   402ae5 <main+0x365>
  402ae5:	48 8d bd 38 fe ff ff 	lea    -0x1c8(%rbp),%rdi
  402aec:	e8 0f 72 00 00       	callq  409d00 <_ZN7jikoLib5GLLib6CameraC2Ev>
  402af1:	e9 00 00 00 00       	jmpq   402af6 <main+0x376>
  402af6:	c7 85 24 fe ff ff 00 	movl   $0xc0400000,-0x1dc(%rbp)
  402afd:	00 40 c0 
  402b00:	c7 85 20 fe ff ff 00 	movl   $0x40400000,-0x1e0(%rbp)
  402b07:	00 40 40 
  402b0a:	c7 85 1c fe ff ff 00 	movl   $0x3f800000,-0x1e4(%rbp)
  402b11:	00 80 3f 
  402b14:	48 8d bd 28 fe ff ff 	lea    -0x1d8(%rbp),%rdi
  402b1b:	48 8d b5 24 fe ff ff 	lea    -0x1dc(%rbp),%rsi
  402b22:	48 8d 95 20 fe ff ff 	lea    -0x1e0(%rbp),%rdx
  402b29:	48 8d 8d 1c fe ff ff 	lea    -0x1e4(%rbp),%rcx
  402b30:	e8 fb 72 00 00       	callq  409e30 <_ZN3glm5tvec3IfLNS_9precisionE0EEC2ERKfS4_S4_>
  402b35:	e9 00 00 00 00       	jmpq   402b3a <main+0x3ba>
  402b3a:	48 8d bd 38 fe ff ff 	lea    -0x1c8(%rbp),%rdi
  402b41:	48 8d b5 28 fe ff ff 	lea    -0x1d8(%rbp),%rsi
  402b48:	e8 b3 72 00 00       	callq  409e00 <_ZN7jikoLib5GLLib6Camera6setPosERKN3glm5tvec3IfLNS2_9precisionE0EEE>
  402b4d:	e9 00 00 00 00       	jmpq   402b52 <main+0x3d2>
  402b52:	c7 85 0c fe ff ff 00 	movl   $0x0,-0x1f4(%rbp)
  402b59:	00 00 00 
  402b5c:	c7 85 08 fe ff ff 00 	movl   $0x0,-0x1f8(%rbp)
  402b63:	00 00 00 
  402b66:	c7 85 04 fe ff ff 00 	movl   $0x0,-0x1fc(%rbp)
  402b6d:	00 00 00 
  402b70:	48 8d bd 10 fe ff ff 	lea    -0x1f0(%rbp),%rdi
  402b77:	48 8d b5 0c fe ff ff 	lea    -0x1f4(%rbp),%rsi
  402b7e:	48 8d 95 08 fe ff ff 	lea    -0x1f8(%rbp),%rdx
  402b85:	48 8d 8d 04 fe ff ff 	lea    -0x1fc(%rbp),%rcx
  402b8c:	e8 9f 72 00 00       	callq  409e30 <_ZN3glm5tvec3IfLNS_9precisionE0EEC2ERKfS4_S4_>
  402b91:	e9 00 00 00 00       	jmpq   402b96 <main+0x416>
  402b96:	48 8d bd 38 fe ff ff 	lea    -0x1c8(%rbp),%rdi
  402b9d:	48 8d b5 10 fe ff ff 	lea    -0x1f0(%rbp),%rsi
  402ba4:	e8 c7 72 00 00       	callq  409e70 <_ZN7jikoLib5GLLib6Camera7setDrctERKN3glm5tvec3IfLNS2_9precisionE0EEE>
  402ba9:	e9 00 00 00 00       	jmpq   402bae <main+0x42e>
  402bae:	48 8b 7d e8          	mov    -0x18(%rbp),%rdi
  402bb2:	48 8d b5 00 fe ff ff 	lea    -0x200(%rbp),%rsi
  402bb9:	48 8d 95 fc fd ff ff 	lea    -0x204(%rbp),%rdx
  402bc0:	e8 9b f5 ff ff       	callq  402160 <SDL_GetWindowSize@plt>
  402bc5:	e9 00 00 00 00       	jmpq   402bca <main+0x44a>
  402bca:	f3 0f 2a 85 00 fe ff 	cvtsi2ssl -0x200(%rbp),%xmm0
  402bd1:	ff 
  402bd2:	f3 0f 2a 8d fc fd ff 	cvtsi2ssl -0x204(%rbp),%xmm1
  402bd9:	ff 
  402bda:	48 8d bd 38 fe ff ff 	lea    -0x1c8(%rbp),%rdi
  402be1:	e8 ba 72 00 00       	callq  409ea0 <_ZN7jikoLib5GLLib6Camera9setAspectEff>
  402be6:	e9 00 00 00 00       	jmpq   402beb <main+0x46b>
  402beb:	48 8d bd 38 fe ff ff 	lea    -0x1c8(%rbp),%rdi
  402bf2:	f3 0f 10 05 7e 5e 01 	movss  0x15e7e(%rip),%xmm0        # 418a78 <_IO_stdin_used+0x8>
  402bf9:	00 
  402bfa:	e8 d1 72 00 00       	callq  409ed0 <_ZN7jikoLib5GLLib6Camera7setFovyEf>
  402bff:	e9 00 00 00 00       	jmpq   402c04 <main+0x484>
  402c04:	48 8d bd b8 fe ff ff 	lea    -0x148(%rbp),%rdi
  402c0b:	e8 20 80 00 00       	callq  40ac30 <_ZNK7jikoLib5GLLib6Mesh3D9getNormalEv>
  402c10:	48 89 85 f8 fb ff ff 	mov    %rax,-0x408(%rbp)
  402c17:	e9 00 00 00 00       	jmpq   402c1c <main+0x49c>
  402c1c:	48 8d bd b8 fe ff ff 	lea    -0x148(%rbp),%rdi
  402c23:	e8 28 80 00 00       	callq  40ac50 <_ZNK7jikoLib5GLLib6Mesh3D9getVArrayEv>
  402c28:	48 89 85 f0 fb ff ff 	mov    %rax,-0x410(%rbp)
  402c2f:	e9 00 00 00 00       	jmpq   402c34 <main+0x4b4>
  402c34:	48 8d 85 e8 fd ff ff 	lea    -0x218(%rbp),%rax
  402c3b:	48 89 c7             	mov    %rax,%rdi
  402c3e:	48 89 85 e8 fb ff ff 	mov    %rax,-0x418(%rbp)
  402c45:	e8 a6 f7 ff ff       	callq  4023f0 <_ZNSaIcEC1Ev@plt>
  402c4a:	b9 c0 8c 41 00       	mov    $0x418cc0,%ecx
  402c4f:	89 ce                	mov    %ecx,%esi
  402c51:	48 8d bd f0 fd ff ff 	lea    -0x210(%rbp),%rdi
  402c58:	48 8b 95 e8 fb ff ff 	mov    -0x418(%rbp),%rdx
  402c5f:	e8 5c f6 ff ff       	callq  4022c0 <_ZNSsC1EPKcRKSaIcE@plt>
  402c64:	e9 00 00 00 00       	jmpq   402c69 <main+0x4e9>
  402c69:	b8 e0 d7 61 00       	mov    $0x61d7e0,%eax
  402c6e:	89 c7                	mov    %eax,%edi
  402c70:	48 8d 75 98          	lea    -0x68(%rbp),%rsi
  402c74:	4c 8d 85 f0 fd ff ff 	lea    -0x210(%rbp),%r8
  402c7b:	48 8b 95 f8 fb ff ff 	mov    -0x408(%rbp),%rdx
  402c82:	48 8b 8d f0 fb ff ff 	mov    -0x410(%rbp),%rcx
  402c89:	e8 62 72 00 00       	callq  409ef0 <_ZN7jikoLib5GLLib8GLObject13connectAttribINS0_10StaticDrawENS0_11GLAllocatorINS0_16Alloc_ShaderProgEEENS4_INS0_18Alloc_VertexBufferEEENS4_INS0_17Alloc_VertexArrayEEEEEvRKNS0_10ShaderProgIT0_EERKNS0_12VertexBufferINS0_11ArrayBufferET_T1_EERKNS0_11VertexArrayIT2_EERKSs>
  402c8e:	e9 00 00 00 00       	jmpq   402c93 <main+0x513>
  402c93:	48 8d bd f0 fd ff ff 	lea    -0x210(%rbp),%rdi
  402c9a:	e8 e1 f6 ff ff       	callq  402380 <_ZNSsD1Ev@plt>
  402c9f:	48 8d bd e8 fd ff ff 	lea    -0x218(%rbp),%rdi
  402ca6:	e8 05 f6 ff ff       	callq  4022b0 <_ZNSaIcED1Ev@plt>
  402cab:	48 8d bd b8 fe ff ff 	lea    -0x148(%rbp),%rdi
  402cb2:	e8 b9 7f 00 00       	callq  40ac70 <_ZNK7jikoLib5GLLib6Mesh3D9getVertexEv>
  402cb7:	48 89 85 e0 fb ff ff 	mov    %rax,-0x420(%rbp)
  402cbe:	e9 00 00 00 00       	jmpq   402cc3 <main+0x543>
  402cc3:	48 8d bd b8 fe ff ff 	lea    -0x148(%rbp),%rdi
  402cca:	e8 81 7f 00 00       	callq  40ac50 <_ZNK7jikoLib5GLLib6Mesh3D9getVArrayEv>
  402ccf:	48 89 85 d8 fb ff ff 	mov    %rax,-0x428(%rbp)
  402cd6:	e9 00 00 00 00       	jmpq   402cdb <main+0x55b>
  402cdb:	48 8d 85 d8 fd ff ff 	lea    -0x228(%rbp),%rax
  402ce2:	48 89 c7             	mov    %rax,%rdi
  402ce5:	48 89 85 d0 fb ff ff 	mov    %rax,-0x430(%rbp)
  402cec:	e8 ff f6 ff ff       	callq  4023f0 <_ZNSaIcEC1Ev@plt>
  402cf1:	b9 c5 8c 41 00       	mov    $0x418cc5,%ecx
  402cf6:	89 ce                	mov    %ecx,%esi
  402cf8:	48 8d bd e0 fd ff ff 	lea    -0x220(%rbp),%rdi
  402cff:	48 8b 95 d0 fb ff ff 	mov    -0x430(%rbp),%rdx
  402d06:	e8 b5 f5 ff ff       	callq  4022c0 <_ZNSsC1EPKcRKSaIcE@plt>
  402d0b:	e9 00 00 00 00       	jmpq   402d10 <main+0x590>
  402d10:	b8 e0 d7 61 00       	mov    $0x61d7e0,%eax
  402d15:	89 c7                	mov    %eax,%edi
  402d17:	48 8d 75 98          	lea    -0x68(%rbp),%rsi
  402d1b:	4c 8d 85 e0 fd ff ff 	lea    -0x220(%rbp),%r8
  402d22:	48 8b 95 e0 fb ff ff 	mov    -0x420(%rbp),%rdx
  402d29:	48 8b 8d d8 fb ff ff 	mov    -0x428(%rbp),%rcx
  402d30:	e8 bb 71 00 00       	callq  409ef0 <_ZN7jikoLib5GLLib8GLObject13connectAttribINS0_10StaticDrawENS0_11GLAllocatorINS0_16Alloc_ShaderProgEEENS4_INS0_18Alloc_VertexBufferEEENS4_INS0_17Alloc_VertexArrayEEEEEvRKNS0_10ShaderProgIT0_EERKNS0_12VertexBufferINS0_11ArrayBufferET_T1_EERKNS0_11VertexArrayIT2_EERKSs>
  402d35:	e9 00 00 00 00       	jmpq   402d3a <main+0x5ba>
  402d3a:	48 8d bd e0 fd ff ff 	lea    -0x220(%rbp),%rdi
  402d41:	e8 3a f6 ff ff       	callq  402380 <_ZNSsD1Ev@plt>
  402d46:	48 8d bd d8 fd ff ff 	lea    -0x228(%rbp),%rdi
  402d4d:	e8 5e f5 ff ff       	callq  4022b0 <_ZNSaIcED1Ev@plt>
  402d52:	48 8d bd c8 fd ff ff 	lea    -0x238(%rbp),%rdi
  402d59:	48 89 bd c8 fb ff ff 	mov    %rdi,-0x438(%rbp)
  402d60:	e8 8b f6 ff ff       	callq  4023f0 <_ZNSaIcEC1Ev@plt>
  402d65:	b8 cc 8c 41 00       	mov    $0x418ccc,%eax
  402d6a:	89 c6                	mov    %eax,%esi
  402d6c:	48 8d bd d0 fd ff ff 	lea    -0x230(%rbp),%rdi
  402d73:	48 8b 95 c8 fb ff ff 	mov    -0x438(%rbp),%rdx
  402d7a:	e8 41 f5 ff ff       	callq  4022c0 <_ZNSsC1EPKcRKSaIcE@plt>
  402d7f:	e9 00 00 00 00       	jmpq   402d84 <main+0x604>
  402d84:	48 8d bd 88 fd ff ff 	lea    -0x278(%rbp),%rdi
  402d8b:	48 8d b5 b8 fe ff ff 	lea    -0x148(%rbp),%rsi
  402d92:	e8 79 84 00 00       	callq  40b210 <_ZN7jikoLib5GLLib6Mesh3D14getModelMatrixEv>
  402d97:	e9 00 00 00 00       	jmpq   402d9c <main+0x61c>
  402d9c:	48 8d bd 88 fd ff ff 	lea    -0x278(%rbp),%rdi
  402da3:	e8 48 84 00 00       	callq  40b1f0 <_ZN3glm9value_ptrIfLNS_9precisionE0EEEPKT_RKNS_7tmat4x4IS2_XT0_EEE>
  402da8:	48 89 85 c0 fb ff ff 	mov    %rax,-0x440(%rbp)
  402daf:	e9 00 00 00 00       	jmpq   402db4 <main+0x634>
  402db4:	b8 01 00 00 00       	mov    $0x1,%eax
  402db9:	89 c1                	mov    %eax,%ecx
  402dbb:	b8 04 00 00 00       	mov    $0x4,%eax
  402dc0:	41 89 c0             	mov    %eax,%r8d
  402dc3:	48 8d 7d 98          	lea    -0x68(%rbp),%rdi
  402dc7:	48 8d b5 d0 fd ff ff 	lea    -0x230(%rbp),%rsi
  402dce:	48 8b 95 c0 fb ff ff 	mov    -0x440(%rbp),%rdx
  402dd5:	e8 a6 7e 00 00       	callq  40ac80 <_ZN7jikoLib5GLLib10ShaderProgINS0_11GLAllocatorINS0_16Alloc_ShaderProgEEEE19setUniformMatrixXtvIfEEvRKSsPKT_mm>
  402dda:	e9 00 00 00 00       	jmpq   402ddf <main+0x65f>
  402ddf:	48 8d bd 88 fd ff ff 	lea    -0x278(%rbp),%rdi
  402de6:	e8 45 86 00 00       	callq  40b430 <_ZN3glm7tmat4x4IfLNS_9precisionE0EED2Ev>
  402deb:	48 8d bd d0 fd ff ff 	lea    -0x230(%rbp),%rdi
  402df2:	e8 89 f5 ff ff       	callq  402380 <_ZNSsD1Ev@plt>
  402df7:	48 8d bd c8 fd ff ff 	lea    -0x238(%rbp),%rdi
  402dfe:	e8 ad f4 ff ff       	callq  4022b0 <_ZNSaIcED1Ev@plt>
  402e03:	48 8d bd 78 fd ff ff 	lea    -0x288(%rbp),%rdi
  402e0a:	48 89 bd b8 fb ff ff 	mov    %rdi,-0x448(%rbp)
  402e11:	e8 da f5 ff ff       	callq  4023f0 <_ZNSaIcEC1Ev@plt>
  402e16:	b8 d2 8c 41 00       	mov    $0x418cd2,%eax
  402e1b:	89 c6                	mov    %eax,%esi
  402e1d:	48 8d bd 80 fd ff ff 	lea    -0x280(%rbp),%rdi
  402e24:	48 8b 95 b8 fb ff ff 	mov    -0x448(%rbp),%rdx
  402e2b:	e8 90 f4 ff ff       	callq  4022c0 <_ZNSsC1EPKcRKSaIcE@plt>
  402e30:	e9 00 00 00 00       	jmpq   402e35 <main+0x6b5>
  402e35:	48 8d bd 38 fd ff ff 	lea    -0x2c8(%rbp),%rdi
  402e3c:	48 8d b5 38 fe ff ff 	lea    -0x1c8(%rbp),%rsi
  402e43:	e8 48 86 00 00       	callq  40b490 <_ZN7jikoLib5GLLib6Camera13getViewMatrixEv>
  402e48:	e9 00 00 00 00       	jmpq   402e4d <main+0x6cd>
  402e4d:	48 8d bd 38 fd ff ff 	lea    -0x2c8(%rbp),%rdi
  402e54:	e8 97 83 00 00       	callq  40b1f0 <_ZN3glm9value_ptrIfLNS_9precisionE0EEEPKT_RKNS_7tmat4x4IS2_XT0_EEE>
  402e59:	48 89 85 b0 fb ff ff 	mov    %rax,-0x450(%rbp)
  402e60:	e9 00 00 00 00       	jmpq   402e65 <main+0x6e5>
  402e65:	b8 01 00 00 00       	mov    $0x1,%eax
  402e6a:	89 c1                	mov    %eax,%ecx
  402e6c:	b8 04 00 00 00       	mov    $0x4,%eax
  402e71:	41 89 c0             	mov    %eax,%r8d
  402e74:	48 8d 7d 98          	lea    -0x68(%rbp),%rdi
  402e78:	48 8d b5 80 fd ff ff 	lea    -0x280(%rbp),%rsi
  402e7f:	48 8b 95 b0 fb ff ff 	mov    -0x450(%rbp),%rdx
  402e86:	e8 f5 7d 00 00       	callq  40ac80 <_ZN7jikoLib5GLLib10ShaderProgINS0_11GLAllocatorINS0_16Alloc_ShaderProgEEEE19setUniformMatrixXtvIfEEvRKSsPKT_mm>
  402e8b:	e9 00 00 00 00       	jmpq   402e90 <main+0x710>
  402e90:	48 8d bd 38 fd ff ff 	lea    -0x2c8(%rbp),%rdi
  402e97:	e8 94 85 00 00       	callq  40b430 <_ZN3glm7tmat4x4IfLNS_9precisionE0EED2Ev>
  402e9c:	48 8d bd 80 fd ff ff 	lea    -0x280(%rbp),%rdi
  402ea3:	e8 d8 f4 ff ff       	callq  402380 <_ZNSsD1Ev@plt>
  402ea8:	48 8d bd 78 fd ff ff 	lea    -0x288(%rbp),%rdi
  402eaf:	e8 fc f3 ff ff       	callq  4022b0 <_ZNSaIcED1Ev@plt>
  402eb4:	48 8d bd 28 fd ff ff 	lea    -0x2d8(%rbp),%rdi
  402ebb:	48 89 bd a8 fb ff ff 	mov    %rdi,-0x458(%rbp)
  402ec2:	e8 29 f5 ff ff       	callq  4023f0 <_ZNSaIcEC1Ev@plt>
  402ec7:	b8 d7 8c 41 00       	mov    $0x418cd7,%eax
  402ecc:	89 c6                	mov    %eax,%esi
  402ece:	48 8d bd 30 fd ff ff 	lea    -0x2d0(%rbp),%rdi
  402ed5:	48 8b 95 a8 fb ff ff 	mov    -0x458(%rbp),%rdx
  402edc:	e8 df f3 ff ff       	callq  4022c0 <_ZNSsC1EPKcRKSaIcE@plt>
  402ee1:	e9 00 00 00 00       	jmpq   402ee6 <main+0x766>
  402ee6:	48 8d bd e8 fc ff ff 	lea    -0x318(%rbp),%rdi
  402eed:	48 8d b5 38 fe ff ff 	lea    -0x1c8(%rbp),%rsi
  402ef4:	e8 e7 85 00 00       	callq  40b4e0 <_ZN7jikoLib5GLLib6Camera19getProjectionMatrixEv>
  402ef9:	e9 00 00 00 00       	jmpq   402efe <main+0x77e>
  402efe:	48 8d bd e8 fc ff ff 	lea    -0x318(%rbp),%rdi
  402f05:	e8 e6 82 00 00       	callq  40b1f0 <_ZN3glm9value_ptrIfLNS_9precisionE0EEEPKT_RKNS_7tmat4x4IS2_XT0_EEE>
  402f0a:	48 89 85 a0 fb ff ff 	mov    %rax,-0x460(%rbp)
  402f11:	e9 00 00 00 00       	jmpq   402f16 <main+0x796>
  402f16:	b8 01 00 00 00       	mov    $0x1,%eax
  402f1b:	89 c1                	mov    %eax,%ecx
  402f1d:	b8 04 00 00 00       	mov    $0x4,%eax
  402f22:	41 89 c0             	mov    %eax,%r8d
  402f25:	48 8d 7d 98          	lea    -0x68(%rbp),%rdi
  402f29:	48 8d b5 30 fd ff ff 	lea    -0x2d0(%rbp),%rsi
  402f30:	48 8b 95 a0 fb ff ff 	mov    -0x460(%rbp),%rdx
  402f37:	e8 44 7d 00 00       	callq  40ac80 <_ZN7jikoLib5GLLib10ShaderProgINS0_11GLAllocatorINS0_16Alloc_ShaderProgEEEE19setUniformMatrixXtvIfEEvRKSsPKT_mm>
  402f3c:	e9 00 00 00 00       	jmpq   402f41 <main+0x7c1>
  402f41:	48 8d bd e8 fc ff ff 	lea    -0x318(%rbp),%rdi
  402f48:	e8 e3 84 00 00       	callq  40b430 <_ZN3glm7tmat4x4IfLNS_9precisionE0EED2Ev>
  402f4d:	48 8d bd 30 fd ff ff 	lea    -0x2d0(%rbp),%rdi
  402f54:	e8 27 f4 ff ff       	callq  402380 <_ZNSsD1Ev@plt>
  402f59:	48 8d bd 28 fd ff ff 	lea    -0x2d8(%rbp),%rdi
  402f60:	e8 4b f3 ff ff       	callq  4022b0 <_ZNSaIcED1Ev@plt>
  402f65:	c6 85 e7 fc ff ff 00 	movb   $0x0,-0x319(%rbp)
  402f6c:	8a 85 e7 fc ff ff    	mov    -0x319(%rbp),%al
  402f72:	34 01                	xor    $0x1,%al
  402f74:	a8 01                	test   $0x1,%al
  402f76:	0f 85 05 00 00 00    	jne    402f81 <main+0x801>
  402f7c:	e9 1f 08 00 00       	jmpq   4037a0 <main+0x1020>
  402f81:	e9 00 00 00 00       	jmpq   402f86 <main+0x806>
  402f86:	48 8d bd a8 fc ff ff 	lea    -0x358(%rbp),%rdi
  402f8d:	e8 2e f2 ff ff       	callq  4021c0 <SDL_PollEvent@plt>
  402f92:	89 85 9c fb ff ff    	mov    %eax,-0x464(%rbp)
  402f98:	e9 00 00 00 00       	jmpq   402f9d <main+0x81d>
  402f9d:	8b 85 9c fb ff ff    	mov    -0x464(%rbp),%eax
  402fa3:	3d 00 00 00 00       	cmp    $0x0,%eax
  402fa8:	0f 84 b9 01 00 00    	je     403167 <main+0x9e7>
  402fae:	81 bd a8 fc ff ff 00 	cmpl   $0x100,-0x358(%rbp)
  402fb5:	01 00 00 
  402fb8:	0f 85 a4 01 00 00    	jne    403162 <main+0x9e2>
  402fbe:	c6 85 e7 fc ff ff 01 	movb   $0x1,-0x319(%rbp)
  402fc5:	e9 98 01 00 00       	jmpq   403162 <main+0x9e2>
  402fca:	89 d1                	mov    %edx,%ecx
  402fcc:	48 89 45 b0          	mov    %rax,-0x50(%rbp)
  402fd0:	89 4d ac             	mov    %ecx,-0x54(%rbp)
  402fd3:	e9 61 08 00 00       	jmpq   403839 <main+0x10b9>
  402fd8:	89 d1                	mov    %edx,%ecx
  402fda:	48 89 45 b0          	mov    %rax,-0x50(%rbp)
  402fde:	89 4d ac             	mov    %ecx,-0x54(%rbp)
  402fe1:	e9 4a 08 00 00       	jmpq   403830 <main+0x10b0>
  402fe6:	89 d1                	mov    %edx,%ecx
  402fe8:	48 89 45 b0          	mov    %rax,-0x50(%rbp)
  402fec:	89 4d ac             	mov    %ecx,-0x54(%rbp)
  402fef:	e9 33 08 00 00       	jmpq   403827 <main+0x10a7>
  402ff4:	89 d1                	mov    %edx,%ecx
  402ff6:	48 89 45 b0          	mov    %rax,-0x50(%rbp)
  402ffa:	89 4d ac             	mov    %ecx,-0x54(%rbp)
  402ffd:	e9 19 08 00 00       	jmpq   40381b <main+0x109b>
  403002:	89 d1                	mov    %edx,%ecx
  403004:	48 89 45 b0          	mov    %rax,-0x50(%rbp)
  403008:	89 4d ac             	mov    %ecx,-0x54(%rbp)
  40300b:	e9 ff 07 00 00       	jmpq   40380f <main+0x108f>
  403010:	89 d1                	mov    %edx,%ecx
  403012:	48 89 45 b0          	mov    %rax,-0x50(%rbp)
  403016:	89 4d ac             	mov    %ecx,-0x54(%rbp)
  403019:	e9 15 00 00 00       	jmpq   403033 <main+0x8b3>
  40301e:	48 8d bd f0 fd ff ff 	lea    -0x210(%rbp),%rdi
  403025:	89 d1                	mov    %edx,%ecx
  403027:	48 89 45 b0          	mov    %rax,-0x50(%rbp)
  40302b:	89 4d ac             	mov    %ecx,-0x54(%rbp)
  40302e:	e8 4d f3 ff ff       	callq  402380 <_ZNSsD1Ev@plt>
  403033:	48 8d bd e8 fd ff ff 	lea    -0x218(%rbp),%rdi
  40303a:	e8 71 f2 ff ff       	callq  4022b0 <_ZNSaIcED1Ev@plt>
  40303f:	e9 cb 07 00 00       	jmpq   40380f <main+0x108f>
  403044:	89 d1                	mov    %edx,%ecx
  403046:	48 89 45 b0          	mov    %rax,-0x50(%rbp)
  40304a:	89 4d ac             	mov    %ecx,-0x54(%rbp)
  40304d:	e9 15 00 00 00       	jmpq   403067 <main+0x8e7>
  403052:	48 8d bd e0 fd ff ff 	lea    -0x220(%rbp),%rdi
  403059:	89 d1                	mov    %edx,%ecx
  40305b:	48 89 45 b0          	mov    %rax,-0x50(%rbp)
  40305f:	89 4d ac             	mov    %ecx,-0x54(%rbp)
  403062:	e8 19 f3 ff ff       	callq  402380 <_ZNSsD1Ev@plt>
  403067:	48 8d bd d8 fd ff ff 	lea    -0x228(%rbp),%rdi
  40306e:	e8 3d f2 ff ff       	callq  4022b0 <_ZNSaIcED1Ev@plt>
  403073:	e9 97 07 00 00       	jmpq   40380f <main+0x108f>
  403078:	89 d1                	mov    %edx,%ecx
  40307a:	48 89 45 b0          	mov    %rax,-0x50(%rbp)
  40307e:	89 4d ac             	mov    %ecx,-0x54(%rbp)
  403081:	e9 2f 00 00 00       	jmpq   4030b5 <main+0x935>
  403086:	89 d1                	mov    %edx,%ecx
  403088:	48 89 45 b0          	mov    %rax,-0x50(%rbp)
  40308c:	89 4d ac             	mov    %ecx,-0x54(%rbp)
  40308f:	e9 15 00 00 00       	jmpq   4030a9 <main+0x929>
  403094:	48 8d bd 88 fd ff ff 	lea    -0x278(%rbp),%rdi
  40309b:	89 d1                	mov    %edx,%ecx
  40309d:	48 89 45 b0          	mov    %rax,-0x50(%rbp)
  4030a1:	89 4d ac             	mov    %ecx,-0x54(%rbp)
  4030a4:	e8 87 83 00 00       	callq  40b430 <_ZN3glm7tmat4x4IfLNS_9precisionE0EED2Ev>
  4030a9:	48 8d bd d0 fd ff ff 	lea    -0x230(%rbp),%rdi
  4030b0:	e8 cb f2 ff ff       	callq  402380 <_ZNSsD1Ev@plt>
  4030b5:	48 8d bd c8 fd ff ff 	lea    -0x238(%rbp),%rdi
  4030bc:	e8 ef f1 ff ff       	callq  4022b0 <_ZNSaIcED1Ev@plt>
  4030c1:	e9 49 07 00 00       	jmpq   40380f <main+0x108f>
  4030c6:	89 d1                	mov    %edx,%ecx
  4030c8:	48 89 45 b0          	mov    %rax,-0x50(%rbp)
  4030cc:	89 4d ac             	mov    %ecx,-0x54(%rbp)
  4030cf:	e9 2f 00 00 00       	jmpq   403103 <main+0x983>
  4030d4:	89 d1                	mov    %edx,%ecx
  4030d6:	48 89 45 b0          	mov    %rax,-0x50(%rbp)
  4030da:	89 4d ac             	mov    %ecx,-0x54(%rbp)
  4030dd:	e9 15 00 00 00       	jmpq   4030f7 <main+0x977>
  4030e2:	48 8d bd 38 fd ff ff 	lea    -0x2c8(%rbp),%rdi
  4030e9:	89 d1                	mov    %edx,%ecx
  4030eb:	48 89 45 b0          	mov    %rax,-0x50(%rbp)
  4030ef:	89 4d ac             	mov    %ecx,-0x54(%rbp)
  4030f2:	e8 39 83 00 00       	callq  40b430 <_ZN3glm7tmat4x4IfLNS_9precisionE0EED2Ev>
  4030f7:	48 8d bd 80 fd ff ff 	lea    -0x280(%rbp),%rdi
  4030fe:	e8 7d f2 ff ff       	callq  402380 <_ZNSsD1Ev@plt>
  403103:	48 8d bd 78 fd ff ff 	lea    -0x288(%rbp),%rdi
  40310a:	e8 a1 f1 ff ff       	callq  4022b0 <_ZNSaIcED1Ev@plt>
  40310f:	e9 fb 06 00 00       	jmpq   40380f <main+0x108f>
  403114:	89 d1                	mov    %edx,%ecx
  403116:	48 89 45 b0          	mov    %rax,-0x50(%rbp)
  40311a:	89 4d ac             	mov    %ecx,-0x54(%rbp)
  40311d:	e9 2f 00 00 00       	jmpq   403151 <main+0x9d1>
  403122:	89 d1                	mov    %edx,%ecx
  403124:	48 89 45 b0          	mov    %rax,-0x50(%rbp)
  403128:	89 4d ac             	mov    %ecx,-0x54(%rbp)
  40312b:	e9 15 00 00 00       	jmpq   403145 <main+0x9c5>
  403130:	48 8d bd e8 fc ff ff 	lea    -0x318(%rbp),%rdi
  403137:	89 d1                	mov    %edx,%ecx
  403139:	48 89 45 b0          	mov    %rax,-0x50(%rbp)
  40313d:	89 4d ac             	mov    %ecx,-0x54(%rbp)
  403140:	e8 eb 82 00 00       	callq  40b430 <_ZN3glm7tmat4x4IfLNS_9precisionE0EED2Ev>
  403145:	48 8d bd 30 fd ff ff 	lea    -0x2d0(%rbp),%rdi
  40314c:	e8 2f f2 ff ff       	callq  402380 <_ZNSsD1Ev@plt>
  403151:	48 8d bd 28 fd ff ff 	lea    -0x2d8(%rbp),%rdi
  403158:	e8 53 f1 ff ff       	callq  4022b0 <_ZNSaIcED1Ev@plt>
  40315d:	e9 ad 06 00 00       	jmpq   40380f <main+0x108f>
  403162:	e9 1f fe ff ff       	jmpq   402f86 <main+0x806>
  403167:	e8 24 f0 ff ff       	callq  402190 <glGetError@plt>
  40316c:	89 85 98 fb ff ff    	mov    %eax,-0x468(%rbp)
  403172:	e9 00 00 00 00       	jmpq   403177 <main+0x9f7>
  403177:	8b 85 98 fb ff ff    	mov    -0x468(%rbp),%eax
  40317d:	89 04 25 d4 d7 61 00 	mov    %eax,0x61d7d4
  403184:	81 3c 25 d4 d7 61 00 	cmpl   $0x500,0x61d7d4
  40318b:	00 05 00 00 
  40318f:	0f 85 bd 00 00 00    	jne    403252 <main+0xad2>
  403195:	b8 c0 d6 61 00       	mov    $0x61d6c0,%eax
  40319a:	89 c7                	mov    %eax,%edi
  40319c:	b8 e2 8c 41 00       	mov    $0x418ce2,%eax
  4031a1:	89 c6                	mov    %eax,%esi
  4031a3:	e8 b8 f0 ff ff       	callq  402260 <_ZStlsISt11char_traitsIcEERSt13basic_ostreamIcT_ES5_PKc@plt>
  4031a8:	48 89 85 90 fb ff ff 	mov    %rax,-0x470(%rbp)
  4031af:	e9 00 00 00 00       	jmpq   4031b4 <main+0xa34>
  4031b4:	b8 f2 8c 41 00       	mov    $0x418cf2,%eax
  4031b9:	89 c6                	mov    %eax,%esi
  4031bb:	48 8b bd 90 fb ff ff 	mov    -0x470(%rbp),%rdi
  4031c2:	e8 99 f0 ff ff       	callq  402260 <_ZStlsISt11char_traitsIcEERSt13basic_ostreamIcT_ES5_PKc@plt>
  4031c7:	48 89 85 88 fb ff ff 	mov    %rax,-0x478(%rbp)
  4031ce:	e9 00 00 00 00       	jmpq   4031d3 <main+0xa53>
  4031d3:	b8 f7 8c 41 00       	mov    $0x418cf7,%eax
  4031d8:	89 c6                	mov    %eax,%esi
  4031da:	48 8b bd 88 fb ff ff 	mov    -0x478(%rbp),%rdi
  4031e1:	e8 7a f0 ff ff       	callq  402260 <_ZStlsISt11char_traitsIcEERSt13basic_ostreamIcT_ES5_PKc@plt>
  4031e6:	48 89 85 80 fb ff ff 	mov    %rax,-0x480(%rbp)
  4031ed:	e9 00 00 00 00       	jmpq   4031f2 <main+0xa72>
  4031f2:	b8 93 8c 41 00       	mov    $0x418c93,%eax
  4031f7:	89 c6                	mov    %eax,%esi
  4031f9:	48 8b bd 80 fb ff ff 	mov    -0x480(%rbp),%rdi
  403200:	e8 5b f0 ff ff       	callq  402260 <_ZStlsISt11char_traitsIcEERSt13basic_ostreamIcT_ES5_PKc@plt>
  403205:	48 89 85 78 fb ff ff 	mov    %rax,-0x488(%rbp)
  40320c:	e9 00 00 00 00       	jmpq   403211 <main+0xa91>
  403211:	be 69 00 00 00       	mov    $0x69,%esi
  403216:	48 8b bd 78 fb ff ff 	mov    -0x488(%rbp),%rdi
  40321d:	e8 9e f1 ff ff       	callq  4023c0 <_ZNSolsEi@plt>
  403222:	48 89 85 70 fb ff ff 	mov    %rax,-0x490(%rbp)
  403229:	e9 00 00 00 00       	jmpq   40322e <main+0xaae>
  40322e:	b8 80 21 40 00       	mov    $0x402180,%eax
  403233:	89 c6                	mov    %eax,%esi
  403235:	48 8b bd 70 fb ff ff 	mov    -0x490(%rbp),%rdi
  40323c:	e8 5f f0 ff ff       	callq  4022a0 <_ZNSolsEPFRSoS_E@plt>
  403241:	48 89 85 68 fb ff ff 	mov    %rax,-0x498(%rbp)
  403248:	e9 00 00 00 00       	jmpq   40324d <main+0xacd>
  40324d:	e9 00 00 00 00       	jmpq   403252 <main+0xad2>
  403252:	81 3c 25 d4 d7 61 00 	cmpl   $0x501,0x61d7d4
  403259:	01 05 00 00 
  40325d:	0f 85 bd 00 00 00    	jne    403320 <main+0xba0>
  403263:	b8 c0 d6 61 00       	mov    $0x61d6c0,%eax
  403268:	89 c7                	mov    %eax,%edi
  40326a:	b8 04 8d 41 00       	mov    $0x418d04,%eax
  40326f:	89 c6                	mov    %eax,%esi
  403271:	e8 ea ef ff ff       	callq  402260 <_ZStlsISt11char_traitsIcEERSt13basic_ostreamIcT_ES5_PKc@plt>
  403276:	48 89 85 60 fb ff ff 	mov    %rax,-0x4a0(%rbp)
  40327d:	e9 00 00 00 00       	jmpq   403282 <main+0xb02>
  403282:	b8 f2 8c 41 00       	mov    $0x418cf2,%eax
  403287:	89 c6                	mov    %eax,%esi
  403289:	48 8b bd 60 fb ff ff 	mov    -0x4a0(%rbp),%rdi
  403290:	e8 cb ef ff ff       	callq  402260 <_ZStlsISt11char_traitsIcEERSt13basic_ostreamIcT_ES5_PKc@plt>
  403295:	48 89 85 58 fb ff ff 	mov    %rax,-0x4a8(%rbp)
  40329c:	e9 00 00 00 00       	jmpq   4032a1 <main+0xb21>
  4032a1:	b8 f7 8c 41 00       	mov    $0x418cf7,%eax
  4032a6:	89 c6                	mov    %eax,%esi
  4032a8:	48 8b bd 58 fb ff ff 	mov    -0x4a8(%rbp),%rdi
  4032af:	e8 ac ef ff ff       	callq  402260 <_ZStlsISt11char_traitsIcEERSt13basic_ostreamIcT_ES5_PKc@plt>
  4032b4:	48 89 85 50 fb ff ff 	mov    %rax,-0x4b0(%rbp)
  4032bb:	e9 00 00 00 00       	jmpq   4032c0 <main+0xb40>
  4032c0:	b8 93 8c 41 00       	mov    $0x418c93,%eax
  4032c5:	89 c6                	mov    %eax,%esi
  4032c7:	48 8b bd 50 fb ff ff 	mov    -0x4b0(%rbp),%rdi
  4032ce:	e8 8d ef ff ff       	callq  402260 <_ZStlsISt11char_traitsIcEERSt13basic_ostreamIcT_ES5_PKc@plt>
  4032d3:	48 89 85 48 fb ff ff 	mov    %rax,-0x4b8(%rbp)
  4032da:	e9 00 00 00 00       	jmpq   4032df <main+0xb5f>
  4032df:	be 69 00 00 00       	mov    $0x69,%esi
  4032e4:	48 8b bd 48 fb ff ff 	mov    -0x4b8(%rbp),%rdi
  4032eb:	e8 d0 f0 ff ff       	callq  4023c0 <_ZNSolsEi@plt>
  4032f0:	48 89 85 40 fb ff ff 	mov    %rax,-0x4c0(%rbp)
  4032f7:	e9 00 00 00 00       	jmpq   4032fc <main+0xb7c>
  4032fc:	b8 80 21 40 00       	mov    $0x402180,%eax
  403301:	89 c6                	mov    %eax,%esi
  403303:	48 8b bd 40 fb ff ff 	mov    -0x4c0(%rbp),%rdi
  40330a:	e8 91 ef ff ff       	callq  4022a0 <_ZNSolsEPFRSoS_E@plt>
  40330f:	48 89 85 38 fb ff ff 	mov    %rax,-0x4c8(%rbp)
  403316:	e9 00 00 00 00       	jmpq   40331b <main+0xb9b>
  40331b:	e9 00 00 00 00       	jmpq   403320 <main+0xba0>
  403320:	81 3c 25 d4 d7 61 00 	cmpl   $0x502,0x61d7d4
  403327:	02 05 00 00 
  40332b:	0f 85 bd 00 00 00    	jne    4033ee <main+0xc6e>
  403331:	b8 c0 d6 61 00       	mov    $0x61d6c0,%eax
  403336:	89 c7                	mov    %eax,%edi
  403338:	b8 15 8d 41 00       	mov    $0x418d15,%eax
  40333d:	89 c6                	mov    %eax,%esi
  40333f:	e8 1c ef ff ff       	callq  402260 <_ZStlsISt11char_traitsIcEERSt13basic_ostreamIcT_ES5_PKc@plt>
  403344:	48 89 85 30 fb ff ff 	mov    %rax,-0x4d0(%rbp)
  40334b:	e9 00 00 00 00       	jmpq   403350 <main+0xbd0>
  403350:	b8 f2 8c 41 00       	mov    $0x418cf2,%eax
  403355:	89 c6                	mov    %eax,%esi
  403357:	48 8b bd 30 fb ff ff 	mov    -0x4d0(%rbp),%rdi
  40335e:	e8 fd ee ff ff       	callq  402260 <_ZStlsISt11char_traitsIcEERSt13basic_ostreamIcT_ES5_PKc@plt>
  403363:	48 89 85 28 fb ff ff 	mov    %rax,-0x4d8(%rbp)
  40336a:	e9 00 00 00 00       	jmpq   40336f <main+0xbef>
  40336f:	b8 f7 8c 41 00       	mov    $0x418cf7,%eax
  403374:	89 c6                	mov    %eax,%esi
  403376:	48 8b bd 28 fb ff ff 	mov    -0x4d8(%rbp),%rdi
  40337d:	e8 de ee ff ff       	callq  402260 <_ZStlsISt11char_traitsIcEERSt13basic_ostreamIcT_ES5_PKc@plt>
  403382:	48 89 85 20 fb ff ff 	mov    %rax,-0x4e0(%rbp)
  403389:	e9 00 00 00 00       	jmpq   40338e <main+0xc0e>
  40338e:	b8 93 8c 41 00       	mov    $0x418c93,%eax
  403393:	89 c6                	mov    %eax,%esi
  403395:	48 8b bd 20 fb ff ff 	mov    -0x4e0(%rbp),%rdi
  40339c:	e8 bf ee ff ff       	callq  402260 <_ZStlsISt11char_traitsIcEERSt13basic_ostreamIcT_ES5_PKc@plt>
  4033a1:	48 89 85 18 fb ff ff 	mov    %rax,-0x4e8(%rbp)
  4033a8:	e9 00 00 00 00       	jmpq   4033ad <main+0xc2d>
  4033ad:	be 69 00 00 00       	mov    $0x69,%esi
  4033b2:	48 8b bd 18 fb ff ff 	mov    -0x4e8(%rbp),%rdi
  4033b9:	e8 02 f0 ff ff       	callq  4023c0 <_ZNSolsEi@plt>
  4033be:	48 89 85 10 fb ff ff 	mov    %rax,-0x4f0(%rbp)
  4033c5:	e9 00 00 00 00       	jmpq   4033ca <main+0xc4a>
  4033ca:	b8 80 21 40 00       	mov    $0x402180,%eax
  4033cf:	89 c6                	mov    %eax,%esi
  4033d1:	48 8b bd 10 fb ff ff 	mov    -0x4f0(%rbp),%rdi
  4033d8:	e8 c3 ee ff ff       	callq  4022a0 <_ZNSolsEPFRSoS_E@plt>
  4033dd:	48 89 85 08 fb ff ff 	mov    %rax,-0x4f8(%rbp)
  4033e4:	e9 00 00 00 00       	jmpq   4033e9 <main+0xc69>
  4033e9:	e9 00 00 00 00       	jmpq   4033ee <main+0xc6e>
  4033ee:	81 3c 25 d4 d7 61 00 	cmpl   $0x503,0x61d7d4
  4033f5:	03 05 00 00 
  4033f9:	0f 85 bd 00 00 00    	jne    4034bc <main+0xd3c>
  4033ff:	b8 c0 d6 61 00       	mov    $0x61d6c0,%eax
  403404:	89 c7                	mov    %eax,%edi
  403406:	b8 2a 8d 41 00       	mov    $0x418d2a,%eax
  40340b:	89 c6                	mov    %eax,%esi
  40340d:	e8 4e ee ff ff       	callq  402260 <_ZStlsISt11char_traitsIcEERSt13basic_ostreamIcT_ES5_PKc@plt>
  403412:	48 89 85 00 fb ff ff 	mov    %rax,-0x500(%rbp)
  403419:	e9 00 00 00 00       	jmpq   40341e <main+0xc9e>
  40341e:	b8 f2 8c 41 00       	mov    $0x418cf2,%eax
  403423:	89 c6                	mov    %eax,%esi
  403425:	48 8b bd 00 fb ff ff 	mov    -0x500(%rbp),%rdi
  40342c:	e8 2f ee ff ff       	callq  402260 <_ZStlsISt11char_traitsIcEERSt13basic_ostreamIcT_ES5_PKc@plt>
  403431:	48 89 85 f8 fa ff ff 	mov    %rax,-0x508(%rbp)
  403438:	e9 00 00 00 00       	jmpq   40343d <main+0xcbd>
  40343d:	b8 f7 8c 41 00       	mov    $0x418cf7,%eax
  403442:	89 c6                	mov    %eax,%esi
  403444:	48 8b bd f8 fa ff ff 	mov    -0x508(%rbp),%rdi
  40344b:	e8 10 ee ff ff       	callq  402260 <_ZStlsISt11char_traitsIcEERSt13basic_ostreamIcT_ES5_PKc@plt>
  403450:	48 89 85 f0 fa ff ff 	mov    %rax,-0x510(%rbp)
  403457:	e9 00 00 00 00       	jmpq   40345c <main+0xcdc>
  40345c:	b8 93 8c 41 00       	mov    $0x418c93,%eax
  403461:	89 c6                	mov    %eax,%esi
  403463:	48 8b bd f0 fa ff ff 	mov    -0x510(%rbp),%rdi
  40346a:	e8 f1 ed ff ff       	callq  402260 <_ZStlsISt11char_traitsIcEERSt13basic_ostreamIcT_ES5_PKc@plt>
  40346f:	48 89 85 e8 fa ff ff 	mov    %rax,-0x518(%rbp)
  403476:	e9 00 00 00 00       	jmpq   40347b <main+0xcfb>
  40347b:	be 69 00 00 00       	mov    $0x69,%esi
  403480:	48 8b bd e8 fa ff ff 	mov    -0x518(%rbp),%rdi
  403487:	e8 34 ef ff ff       	callq  4023c0 <_ZNSolsEi@plt>
  40348c:	48 89 85 e0 fa ff ff 	mov    %rax,-0x520(%rbp)
  403493:	e9 00 00 00 00       	jmpq   403498 <main+0xd18>
  403498:	b8 80 21 40 00       	mov    $0x402180,%eax
  40349d:	89 c6                	mov    %eax,%esi
  40349f:	48 8b bd e0 fa ff ff 	mov    -0x520(%rbp),%rdi
  4034a6:	e8 f5 ed ff ff       	callq  4022a0 <_ZNSolsEPFRSoS_E@plt>
  4034ab:	48 89 85 d8 fa ff ff 	mov    %rax,-0x528(%rbp)
  4034b2:	e9 00 00 00 00       	jmpq   4034b7 <main+0xd37>
  4034b7:	e9 00 00 00 00       	jmpq   4034bc <main+0xd3c>
  4034bc:	81 3c 25 d4 d7 61 00 	cmpl   $0x504,0x61d7d4
  4034c3:	04 05 00 00 
  4034c7:	0f 85 bd 00 00 00    	jne    40358a <main+0xe0a>
  4034cd:	b8 c0 d6 61 00       	mov    $0x61d6c0,%eax
  4034d2:	89 c7                	mov    %eax,%edi
  4034d4:	b8 3c 8d 41 00       	mov    $0x418d3c,%eax
  4034d9:	89 c6                	mov    %eax,%esi
  4034db:	e8 80 ed ff ff       	callq  402260 <_ZStlsISt11char_traitsIcEERSt13basic_ostreamIcT_ES5_PKc@plt>
  4034e0:	48 89 85 d0 fa ff ff 	mov    %rax,-0x530(%rbp)
  4034e7:	e9 00 00 00 00       	jmpq   4034ec <main+0xd6c>
  4034ec:	b8 f2 8c 41 00       	mov    $0x418cf2,%eax
  4034f1:	89 c6                	mov    %eax,%esi
  4034f3:	48 8b bd d0 fa ff ff 	mov    -0x530(%rbp),%rdi
  4034fa:	e8 61 ed ff ff       	callq  402260 <_ZStlsISt11char_traitsIcEERSt13basic_ostreamIcT_ES5_PKc@plt>
  4034ff:	48 89 85 c8 fa ff ff 	mov    %rax,-0x538(%rbp)
  403506:	e9 00 00 00 00       	jmpq   40350b <main+0xd8b>
  40350b:	b8 f7 8c 41 00       	mov    $0x418cf7,%eax
  403510:	89 c6                	mov    %eax,%esi
  403512:	48 8b bd c8 fa ff ff 	mov    -0x538(%rbp),%rdi
  403519:	e8 42 ed ff ff       	callq  402260 <_ZStlsISt11char_traitsIcEERSt13basic_ostreamIcT_ES5_PKc@plt>
  40351e:	48 89 85 c0 fa ff ff 	mov    %rax,-0x540(%rbp)
  403525:	e9 00 00 00 00       	jmpq   40352a <main+0xdaa>
  40352a:	b8 93 8c 41 00       	mov    $0x418c93,%eax
  40352f:	89 c6                	mov    %eax,%esi
  403531:	48 8b bd c0 fa ff ff 	mov    -0x540(%rbp),%rdi
  403538:	e8 23 ed ff ff       	callq  402260 <_ZStlsISt11char_traitsIcEERSt13basic_ostreamIcT_ES5_PKc@plt>
  40353d:	48 89 85 b8 fa ff ff 	mov    %rax,-0x548(%rbp)
  403544:	e9 00 00 00 00       	jmpq   403549 <main+0xdc9>
  403549:	be 69 00 00 00       	mov    $0x69,%esi
  40354e:	48 8b bd b8 fa ff ff 	mov    -0x548(%rbp),%rdi
  403555:	e8 66 ee ff ff       	callq  4023c0 <_ZNSolsEi@plt>
  40355a:	48 89 85 b0 fa ff ff 	mov    %rax,-0x550(%rbp)
  403561:	e9 00 00 00 00       	jmpq   403566 <main+0xde6>
  403566:	b8 80 21 40 00       	mov    $0x402180,%eax
  40356b:	89 c6                	mov    %eax,%esi
  40356d:	48 8b bd b0 fa ff ff 	mov    -0x550(%rbp),%rdi
  403574:	e8 27 ed ff ff       	callq  4022a0 <_ZNSolsEPFRSoS_E@plt>
  403579:	48 89 85 a8 fa ff ff 	mov    %rax,-0x558(%rbp)
  403580:	e9 00 00 00 00       	jmpq   403585 <main+0xe05>
  403585:	e9 00 00 00 00       	jmpq   40358a <main+0xe0a>
  40358a:	81 3c 25 d4 d7 61 00 	cmpl   $0x505,0x61d7d4
  403591:	05 05 00 00 
  403595:	0f 85 bd 00 00 00    	jne    403658 <main+0xed8>
  40359b:	b8 c0 d6 61 00       	mov    $0x61d6c0,%eax
  4035a0:	89 c7                	mov    %eax,%edi
  4035a2:	b8 4f 8d 41 00       	mov    $0x418d4f,%eax
  4035a7:	89 c6                	mov    %eax,%esi
  4035a9:	e8 b2 ec ff ff       	callq  402260 <_ZStlsISt11char_traitsIcEERSt13basic_ostreamIcT_ES5_PKc@plt>
  4035ae:	48 89 85 a0 fa ff ff 	mov    %rax,-0x560(%rbp)
  4035b5:	e9 00 00 00 00       	jmpq   4035ba <main+0xe3a>
  4035ba:	b8 f2 8c 41 00       	mov    $0x418cf2,%eax
  4035bf:	89 c6                	mov    %eax,%esi
  4035c1:	48 8b bd a0 fa ff ff 	mov    -0x560(%rbp),%rdi
  4035c8:	e8 93 ec ff ff       	callq  402260 <_ZStlsISt11char_traitsIcEERSt13basic_ostreamIcT_ES5_PKc@plt>
  4035cd:	48 89 85 98 fa ff ff 	mov    %rax,-0x568(%rbp)
  4035d4:	e9 00 00 00 00       	jmpq   4035d9 <main+0xe59>
  4035d9:	b8 f7 8c 41 00       	mov    $0x418cf7,%eax
  4035de:	89 c6                	mov    %eax,%esi
  4035e0:	48 8b bd 98 fa ff ff 	mov    -0x568(%rbp),%rdi
  4035e7:	e8 74 ec ff ff       	callq  402260 <_ZStlsISt11char_traitsIcEERSt13basic_ostreamIcT_ES5_PKc@plt>
  4035ec:	48 89 85 90 fa ff ff 	mov    %rax,-0x570(%rbp)
  4035f3:	e9 00 00 00 00       	jmpq   4035f8 <main+0xe78>
  4035f8:	b8 93 8c 41 00       	mov    $0x418c93,%eax
  4035fd:	89 c6                	mov    %eax,%esi
  4035ff:	48 8b bd 90 fa ff ff 	mov    -0x570(%rbp),%rdi
  403606:	e8 55 ec ff ff       	callq  402260 <_ZStlsISt11char_traitsIcEERSt13basic_ostreamIcT_ES5_PKc@plt>
  40360b:	48 89 85 88 fa ff ff 	mov    %rax,-0x578(%rbp)
  403612:	e9 00 00 00 00       	jmpq   403617 <main+0xe97>
  403617:	be 69 00 00 00       	mov    $0x69,%esi
  40361c:	48 8b bd 88 fa ff ff 	mov    -0x578(%rbp),%rdi
  403623:	e8 98 ed ff ff       	callq  4023c0 <_ZNSolsEi@plt>
  403628:	48 89 85 80 fa ff ff 	mov    %rax,-0x580(%rbp)
  40362f:	e9 00 00 00 00       	jmpq   403634 <main+0xeb4>
  403634:	b8 80 21 40 00       	mov    $0x402180,%eax
  403639:	89 c6                	mov    %eax,%esi
  40363b:	48 8b bd 80 fa ff ff 	mov    -0x580(%rbp),%rdi
  403642:	e8 59 ec ff ff       	callq  4022a0 <_ZNSolsEPFRSoS_E@plt>
  403647:	48 89 85 78 fa ff ff 	mov    %rax,-0x588(%rbp)
  40364e:	e9 00 00 00 00       	jmpq   403653 <main+0xed3>
  403653:	e9 00 00 00 00       	jmpq   403658 <main+0xed8>
  403658:	81 3c 25 d4 d7 61 00 	cmpl   $0x8031,0x61d7d4
  40365f:	31 80 00 00 
  403663:	0f 85 bd 00 00 00    	jne    403726 <main+0xfa6>
  403669:	b8 c0 d6 61 00       	mov    $0x61d6c0,%eax
  40366e:	89 c7                	mov    %eax,%edi
  403670:	b8 60 8d 41 00       	mov    $0x418d60,%eax
  403675:	89 c6                	mov    %eax,%esi
  403677:	e8 e4 eb ff ff       	callq  402260 <_ZStlsISt11char_traitsIcEERSt13basic_ostreamIcT_ES5_PKc@plt>
  40367c:	48 89 85 70 fa ff ff 	mov    %rax,-0x590(%rbp)
  403683:	e9 00 00 00 00       	jmpq   403688 <main+0xf08>
  403688:	b8 f2 8c 41 00       	mov    $0x418cf2,%eax
  40368d:	89 c6                	mov    %eax,%esi
  40368f:	48 8b bd 70 fa ff ff 	mov    -0x590(%rbp),%rdi
  403696:	e8 c5 eb ff ff       	callq  402260 <_ZStlsISt11char_traitsIcEERSt13basic_ostreamIcT_ES5_PKc@plt>
  40369b:	48 89 85 68 fa ff ff 	mov    %rax,-0x598(%rbp)
  4036a2:	e9 00 00 00 00       	jmpq   4036a7 <main+0xf27>
  4036a7:	b8 f7 8c 41 00       	mov    $0x418cf7,%eax
  4036ac:	89 c6                	mov    %eax,%esi
  4036ae:	48 8b bd 68 fa ff ff 	mov    -0x598(%rbp),%rdi
  4036b5:	e8 a6 eb ff ff       	callq  402260 <_ZStlsISt11char_traitsIcEERSt13basic_ostreamIcT_ES5_PKc@plt>
  4036ba:	48 89 85 60 fa ff ff 	mov    %rax,-0x5a0(%rbp)
  4036c1:	e9 00 00 00 00       	jmpq   4036c6 <main+0xf46>
  4036c6:	b8 93 8c 41 00       	mov    $0x418c93,%eax
  4036cb:	89 c6                	mov    %eax,%esi
  4036cd:	48 8b bd 60 fa ff ff 	mov    -0x5a0(%rbp),%rdi
  4036d4:	e8 87 eb ff ff       	callq  402260 <_ZStlsISt11char_traitsIcEERSt13basic_ostreamIcT_ES5_PKc@plt>
  4036d9:	48 89 85 58 fa ff ff 	mov    %rax,-0x5a8(%rbp)
  4036e0:	e9 00 00 00 00       	jmpq   4036e5 <main+0xf65>
  4036e5:	be 69 00 00 00       	mov    $0x69,%esi
  4036ea:	48 8b bd 58 fa ff ff 	mov    -0x5a8(%rbp),%rdi
  4036f1:	e8 ca ec ff ff       	callq  4023c0 <_ZNSolsEi@plt>
  4036f6:	48 89 85 50 fa ff ff 	mov    %rax,-0x5b0(%rbp)
  4036fd:	e9 00 00 00 00       	jmpq   403702 <main+0xf82>
  403702:	b8 80 21 40 00       	mov    $0x402180,%eax
  403707:	89 c6                	mov    %eax,%esi
  403709:	48 8b bd 50 fa ff ff 	mov    -0x5b0(%rbp),%rdi
  403710:	e8 8b eb ff ff       	callq  4022a0 <_ZNSolsEPFRSoS_E@plt>
  403715:	48 89 85 48 fa ff ff 	mov    %rax,-0x5b8(%rbp)
  40371c:	e9 00 00 00 00       	jmpq   403721 <main+0xfa1>
  403721:	e9 00 00 00 00       	jmpq   403726 <main+0xfa6>
  403726:	bf 00 40 00 00       	mov    $0x4000,%edi
  40372b:	e8 e0 e9 ff ff       	callq  402110 <glClear@plt>
  403730:	e9 00 00 00 00       	jmpq   403735 <main+0xfb5>
  403735:	0f 57 c0             	xorps  %xmm0,%xmm0
  403738:	f3 0f 10 1d 34 53 01 	movss  0x15334(%rip),%xmm3        # 418a74 <_IO_stdin_used+0x4>
  40373f:	00 
  403740:	f3 0f 11 85 44 fa ff 	movss  %xmm0,-0x5bc(%rbp)
  403747:	ff 
  403748:	f3 0f 10 8d 44 fa ff 	movss  -0x5bc(%rbp),%xmm1
  40374f:	ff 
  403750:	f3 0f 10 95 44 fa ff 	movss  -0x5bc(%rbp),%xmm2
  403757:	ff 
  403758:	e8 03 ec ff ff       	callq  402360 <glClearColor@plt>
  40375d:	e9 00 00 00 00       	jmpq   403762 <main+0xfe2>
  403762:	bf 44 0b 00 00       	mov    $0xb44,%edi
  403767:	e8 d4 ea ff ff       	callq  402240 <glEnable@plt>
  40376c:	e9 00 00 00 00       	jmpq   403771 <main+0xff1>
  403771:	b8 e0 d7 61 00       	mov    $0x61d7e0,%eax
  403776:	89 c7                	mov    %eax,%edi
  403778:	48 8d b5 b8 fe ff ff 	lea    -0x148(%rbp),%rsi
  40377f:	48 8d 55 98          	lea    -0x68(%rbp),%rdx
  403783:	e8 98 7d 00 00       	callq  40b520 <_ZN7jikoLib5GLLib8GLObject4drawINS0_12rm_TrianglesENS0_11GLAllocatorINS0_16Alloc_ShaderProgEEEEEvRKNS0_6Mesh3DERKNS0_10ShaderProgIT0_EE>
  403788:	e9 00 00 00 00       	jmpq   40378d <main+0x100d>
  40378d:	48 8b 7d e8          	mov    -0x18(%rbp),%rdi
  403791:	e8 9a eb ff ff       	callq  402330 <SDL_GL_SwapWindow@plt>
  403796:	e9 00 00 00 00       	jmpq   40379b <main+0x101b>
  40379b:	e9 cc f7 ff ff       	jmpq   402f6c <main+0x7ec>
  4037a0:	48 8b 7d e0          	mov    -0x20(%rbp),%rdi
  4037a4:	e8 47 e9 ff ff       	callq  4020f0 <SDL_GL_DeleteContext@plt>
  4037a9:	e9 00 00 00 00       	jmpq   4037ae <main+0x102e>
  4037ae:	48 8b 7d e8          	mov    -0x18(%rbp),%rdi
  4037b2:	e8 e9 e8 ff ff       	callq  4020a0 <SDL_DestroyWindow@plt>
  4037b7:	e9 00 00 00 00       	jmpq   4037bc <main+0x103c>
  4037bc:	e8 1f e9 ff ff       	callq  4020e0 <SDL_Quit@plt>
  4037c1:	e9 00 00 00 00       	jmpq   4037c6 <main+0x1046>
  4037c6:	48 8d bd 70 fe ff ff 	lea    -0x190(%rbp),%rdi
  4037cd:	c7 45 fc 00 00 00 00 	movl   $0x0,-0x4(%rbp)
  4037d4:	c7 85 a4 fc ff ff 01 	movl   $0x1,-0x35c(%rbp)
  4037db:	00 00 00 
  4037de:	e8 ed 7d 00 00       	callq  40b5d0 <_ZN7jikoLib5GLLib10MeshSample4CubeD2Ev>
  4037e3:	48 8d bd b8 fe ff ff 	lea    -0x148(%rbp),%rdi
  4037ea:	e8 31 7e 00 00       	callq  40b620 <_ZN7jikoLib5GLLib6Mesh3DD2Ev>
  4037ef:	48 8d 7d 98          	lea    -0x68(%rbp),%rdi
  4037f3:	e8 98 7e 00 00       	callq  40b690 <_ZN7jikoLib5GLLib10ShaderProgINS0_11GLAllocatorINS0_16Alloc_ShaderProgEEEED2Ev>
  4037f8:	48 8d 7d b8          	lea    -0x48(%rbp),%rdi
  4037fc:	e8 cf 84 00 00       	callq  40bcd0 <_ZN7jikoLib5GLLib6ShaderINS0_14FragmentShaderENS0_11GLAllocatorINS0_12Alloc_ShaderEEEED2Ev>
  403801:	48 8d 7d c8          	lea    -0x38(%rbp),%rdi
  403805:	e8 06 8b 00 00       	callq  40c310 <_ZN7jikoLib5GLLib6ShaderINS0_12VertexShaderENS0_11GLAllocatorINS0_12Alloc_ShaderEEEED2Ev>
  40380a:	e9 38 00 00 00       	jmpq   403847 <main+0x10c7>
  40380f:	48 8d bd 70 fe ff ff 	lea    -0x190(%rbp),%rdi
  403816:	e8 b5 7d 00 00       	callq  40b5d0 <_ZN7jikoLib5GLLib10MeshSample4CubeD2Ev>
  40381b:	48 8d bd b8 fe ff ff 	lea    -0x148(%rbp),%rdi
  403822:	e8 f9 7d 00 00       	callq  40b620 <_ZN7jikoLib5GLLib6Mesh3DD2Ev>
  403827:	48 8d 7d 98          	lea    -0x68(%rbp),%rdi
  40382b:	e8 60 7e 00 00       	callq  40b690 <_ZN7jikoLib5GLLib10ShaderProgINS0_11GLAllocatorINS0_16Alloc_ShaderProgEEEED2Ev>
  403830:	48 8d 7d b8          	lea    -0x48(%rbp),%rdi
  403834:	e8 97 84 00 00       	callq  40bcd0 <_ZN7jikoLib5GLLib6ShaderINS0_14FragmentShaderENS0_11GLAllocatorINS0_12Alloc_ShaderEEEED2Ev>
  403839:	48 8d 7d c8          	lea    -0x38(%rbp),%rdi
  40383d:	e8 ce 8a 00 00       	callq  40c310 <_ZN7jikoLib5GLLib6ShaderINS0_12VertexShaderENS0_11GLAllocatorINS0_12Alloc_ShaderEEEED2Ev>
  403842:	e9 0c 00 00 00       	jmpq   403853 <main+0x10d3>
  403847:	8b 45 fc             	mov    -0x4(%rbp),%eax
  40384a:	48 81 c4 c0 05 00 00 	add    $0x5c0,%rsp
  403851:	5d                   	pop    %rbp
  403852:	c3                   	retq   
  403853:	48 8b 7d b0          	mov    -0x50(%rbp),%rdi
  403857:	e8 84 eb ff ff       	callq  4023e0 <_Unwind_Resume@plt>
  40385c:	0f 1f 40 00          	nopl   0x0(%rax)

0000000000403860 <_ZN7jikoLib5GLLib8GLObjectC2Ev>:
  403860:	55                   	push   %rbp
  403861:	48 89 e5             	mov    %rsp,%rbp
  403864:	48 89 7d f8          	mov    %rdi,-0x8(%rbp)
  403868:	48 8b 7d f8          	mov    -0x8(%rbp),%rdi
  40386c:	c6 07 00             	movb   $0x0,(%rdi)
  40386f:	5d                   	pop    %rbp
  403870:	c3                   	retq   
  403871:	66 2e 0f 1f 84 00 00 	nopw   %cs:0x0(%rax,%rax,1)
  403878:	00 00 00 
  40387b:	0f 1f 44 00 00       	nopl   0x0(%rax,%rax,1)

0000000000403880 <_ZN7jikoLib5GLLib8GLObjectlsEONS0_5BeginE>:
  403880:	55                   	push   %rbp
  403881:	48 89 e5             	mov    %rsp,%rbp
  403884:	48 83 ec 20          	sub    $0x20,%rsp
  403888:	48 89 7d f8          	mov    %rdi,-0x8(%rbp)
  40388c:	48 89 75 f0          	mov    %rsi,-0x10(%rbp)
  403890:	48 8b 75 f8          	mov    -0x8(%rbp),%rsi
  403894:	48 89 f7             	mov    %rsi,%rdi
  403897:	48 89 75 e8          	mov    %rsi,-0x18(%rbp)
  40389b:	e8 a0 4e 01 00       	callq  418740 <_ZN7jikoLib5GLLib8GLObject10initializeEv>
  4038a0:	48 8b 75 e8          	mov    -0x18(%rbp),%rsi
  4038a4:	88 45 e7             	mov    %al,-0x19(%rbp)
  4038a7:	48 89 f0             	mov    %rsi,%rax
  4038aa:	48 83 c4 20          	add    $0x20,%rsp
  4038ae:	5d                   	pop    %rbp
  4038af:	c3                   	retq   

00000000004038b0 <_ZN7jikoLib5GLLib6ShaderINS0_12VertexShaderENS0_11GLAllocatorINS0_12Alloc_ShaderEEEEC2Ev>:
  4038b0:	55                   	push   %rbp
  4038b1:	48 89 e5             	mov    %rsp,%rbp
  4038b4:	48 83 ec 50          	sub    $0x50,%rsp
  4038b8:	48 89 7d f8          	mov    %rdi,-0x8(%rbp)
  4038bc:	48 8b 7d f8          	mov    -0x8(%rbp),%rdi
  4038c0:	c6 47 04 00          	movb   $0x0,0x4(%rdi)
  4038c4:	48 89 f8             	mov    %rdi,%rax
  4038c7:	48 05 08 00 00 00    	add    $0x8,%rax
  4038cd:	48 89 7d f0          	mov    %rdi,-0x10(%rbp)
  4038d1:	48 89 c7             	mov    %rax,%rdi
  4038d4:	e8 27 c6 00 00       	callq  40ff00 <_ZN7jikoLib5GLLib11GLAllocatorINS0_12Alloc_ShaderEEC2Ev>
  4038d9:	be 31 8b 00 00       	mov    $0x8b31,%esi
  4038de:	48 8b 45 f0          	mov    -0x10(%rbp),%rax
  4038e2:	48 05 08 00 00 00    	add    $0x8,%rax
  4038e8:	48 89 c7             	mov    %rax,%rdi
  4038eb:	e8 30 c6 00 00       	callq  40ff20 <_ZN7jikoLib5GLLib11GLAllocatorINS0_12Alloc_ShaderEE9constructIJjEEEjDpT_>
  4038f0:	48 bf 40 d5 61 00 00 	movabs $0x61d540,%rdi
  4038f7:	00 00 00 
  4038fa:	48 be 03 90 41 00 00 	movabs $0x419003,%rsi
  403901:	00 00 00 
  403904:	48 8b 4d f0          	mov    -0x10(%rbp),%rcx
  403908:	89 01                	mov    %eax,(%rcx)
  40390a:	e8 51 e9 ff ff       	callq  402260 <_ZStlsISt11char_traitsIcEERSt13basic_ostreamIcT_ES5_PKc@plt>
  40390f:	48 8b 4d f0          	mov    -0x10(%rbp),%rcx
  403913:	8b 31                	mov    (%rcx),%esi
  403915:	48 89 c7             	mov    %rax,%rdi
  403918:	e8 d3 e9 ff ff       	callq  4022f0 <_ZNSolsEj@plt>
  40391d:	48 be 80 21 40 00 00 	movabs $0x402180,%rsi
  403924:	00 00 00 
  403927:	48 89 c7             	mov    %rax,%rdi
  40392a:	e8 71 e9 ff ff       	callq  4022a0 <_ZNSolsEPFRSoS_E@plt>
  40392f:	48 89 45 e8          	mov    %rax,-0x18(%rbp)
  403933:	e8 58 e8 ff ff       	callq  402190 <glGetError@plt>
  403938:	89 04 25 d4 d7 61 00 	mov    %eax,0x61d7d4
  40393f:	81 3c 25 d4 d7 61 00 	cmpl   $0x500,0x61d7d4
  403946:	00 05 00 00 
  40394a:	0f 85 72 00 00 00    	jne    4039c2 <_ZN7jikoLib5GLLib6ShaderINS0_12VertexShaderENS0_11GLAllocatorINS0_12Alloc_ShaderEEEEC2Ev+0x112>
  403950:	48 bf c0 d6 61 00 00 	movabs $0x61d6c0,%rdi
  403957:	00 00 00 
  40395a:	48 be e2 8c 41 00 00 	movabs $0x418ce2,%rsi
  403961:	00 00 00 
  403964:	e8 f7 e8 ff ff       	callq  402260 <_ZStlsISt11char_traitsIcEERSt13basic_ostreamIcT_ES5_PKc@plt>
  403969:	48 be f2 8c 41 00 00 	movabs $0x418cf2,%rsi
  403970:	00 00 00 
  403973:	48 89 c7             	mov    %rax,%rdi
  403976:	e8 e5 e8 ff ff       	callq  402260 <_ZStlsISt11char_traitsIcEERSt13basic_ostreamIcT_ES5_PKc@plt>
  40397b:	48 be ad 8d 41 00 00 	movabs $0x418dad,%rsi
  403982:	00 00 00 
  403985:	48 89 c7             	mov    %rax,%rdi
  403988:	e8 d3 e8 ff ff       	callq  402260 <_ZStlsISt11char_traitsIcEERSt13basic_ostreamIcT_ES5_PKc@plt>
  40398d:	48 be 93 8c 41 00 00 	movabs $0x418c93,%rsi
  403994:	00 00 00 
  403997:	48 89 c7             	mov    %rax,%rdi
  40399a:	e8 c1 e8 ff ff       	callq  402260 <_ZStlsISt11char_traitsIcEERSt13basic_ostreamIcT_ES5_PKc@plt>
  40399f:	be 3e 00 00 00       	mov    $0x3e,%esi
  4039a4:	48 89 c7             	mov    %rax,%rdi
  4039a7:	e8 14 ea ff ff       	callq  4023c0 <_ZNSolsEi@plt>
  4039ac:	48 be 80 21 40 00 00 	movabs $0x402180,%rsi
  4039b3:	00 00 00 
  4039b6:	48 89 c7             	mov    %rax,%rdi
  4039b9:	e8 e2 e8 ff ff       	callq  4022a0 <_ZNSolsEPFRSoS_E@plt>
  4039be:	48 89 45 e0          	mov    %rax,-0x20(%rbp)
  4039c2:	81 3c 25 d4 d7 61 00 	cmpl   $0x501,0x61d7d4
  4039c9:	01 05 00 00 
  4039cd:	0f 85 72 00 00 00    	jne    403a45 <_ZN7jikoLib5GLLib6ShaderINS0_12VertexShaderENS0_11GLAllocatorINS0_12Alloc_ShaderEEEEC2Ev+0x195>
  4039d3:	48 bf c0 d6 61 00 00 	movabs $0x61d6c0,%rdi
  4039da:	00 00 00 
  4039dd:	48 be 04 8d 41 00 00 	movabs $0x418d04,%rsi
  4039e4:	00 00 00 
  4039e7:	e8 74 e8 ff ff       	callq  402260 <_ZStlsISt11char_traitsIcEERSt13basic_ostreamIcT_ES5_PKc@plt>
  4039ec:	48 be f2 8c 41 00 00 	movabs $0x418cf2,%rsi
  4039f3:	00 00 00 
  4039f6:	48 89 c7             	mov    %rax,%rdi
  4039f9:	e8 62 e8 ff ff       	callq  402260 <_ZStlsISt11char_traitsIcEERSt13basic_ostreamIcT_ES5_PKc@plt>
  4039fe:	48 be ad 8d 41 00 00 	movabs $0x418dad,%rsi
  403a05:	00 00 00 
  403a08:	48 89 c7             	mov    %rax,%rdi
  403a0b:	e8 50 e8 ff ff       	callq  402260 <_ZStlsISt11char_traitsIcEERSt13basic_ostreamIcT_ES5_PKc@plt>
  403a10:	48 be 93 8c 41 00 00 	movabs $0x418c93,%rsi
  403a17:	00 00 00 
  403a1a:	48 89 c7             	mov    %rax,%rdi
  403a1d:	e8 3e e8 ff ff       	callq  402260 <_ZStlsISt11char_traitsIcEERSt13basic_ostreamIcT_ES5_PKc@plt>
  403a22:	be 3e 00 00 00       	mov    $0x3e,%esi
  403a27:	48 89 c7             	mov    %rax,%rdi
  403a2a:	e8 91 e9 ff ff       	callq  4023c0 <_ZNSolsEi@plt>
  403a2f:	48 be 80 21 40 00 00 	movabs $0x402180,%rsi
  403a36:	00 00 00 
  403a39:	48 89 c7             	mov    %rax,%rdi
  403a3c:	e8 5f e8 ff ff       	callq  4022a0 <_ZNSolsEPFRSoS_E@plt>
  403a41:	48 89 45 d8          	mov    %rax,-0x28(%rbp)
  403a45:	81 3c 25 d4 d7 61 00 	cmpl   $0x502,0x61d7d4
  403a4c:	02 05 00 00 
  403a50:	0f 85 72 00 00 00    	jne    403ac8 <_ZN7jikoLib5GLLib6ShaderINS0_12VertexShaderENS0_11GLAllocatorINS0_12Alloc_ShaderEEEEC2Ev+0x218>
  403a56:	48 bf c0 d6 61 00 00 	movabs $0x61d6c0,%rdi
  403a5d:	00 00 00 
  403a60:	48 be 15 8d 41 00 00 	movabs $0x418d15,%rsi
  403a67:	00 00 00 
  403a6a:	e8 f1 e7 ff ff       	callq  402260 <_ZStlsISt11char_traitsIcEERSt13basic_ostreamIcT_ES5_PKc@plt>
  403a6f:	48 be f2 8c 41 00 00 	movabs $0x418cf2,%rsi
  403a76:	00 00 00 
  403a79:	48 89 c7             	mov    %rax,%rdi
  403a7c:	e8 df e7 ff ff       	callq  402260 <_ZStlsISt11char_traitsIcEERSt13basic_ostreamIcT_ES5_PKc@plt>
  403a81:	48 be ad 8d 41 00 00 	movabs $0x418dad,%rsi
  403a88:	00 00 00 
  403a8b:	48 89 c7             	mov    %rax,%rdi
  403a8e:	e8 cd e7 ff ff       	callq  402260 <_ZStlsISt11char_traitsIcEERSt13basic_ostreamIcT_ES5_PKc@plt>
  403a93:	48 be 93 8c 41 00 00 	movabs $0x418c93,%rsi
  403a9a:	00 00 00 
  403a9d:	48 89 c7             	mov    %rax,%rdi
  403aa0:	e8 bb e7 ff ff       	callq  402260 <_ZStlsISt11char_traitsIcEERSt13basic_ostreamIcT_ES5_PKc@plt>
  403aa5:	be 3e 00 00 00       	mov    $0x3e,%esi
  403aaa:	48 89 c7             	mov    %rax,%rdi
  403aad:	e8 0e e9 ff ff       	callq  4023c0 <_ZNSolsEi@plt>
  403ab2:	48 be 80 21 40 00 00 	movabs $0x402180,%rsi
  403ab9:	00 00 00 
  403abc:	48 89 c7             	mov    %rax,%rdi
  403abf:	e8 dc e7 ff ff       	callq  4022a0 <_ZNSolsEPFRSoS_E@plt>
  403ac4:	48 89 45 d0          	mov    %rax,-0x30(%rbp)
  403ac8:	81 3c 25 d4 d7 61 00 	cmpl   $0x503,0x61d7d4
  403acf:	03 05 00 00 
  403ad3:	0f 85 72 00 00 00    	jne    403b4b <_ZN7jikoLib5GLLib6ShaderINS0_12VertexShaderENS0_11GLAllocatorINS0_12Alloc_ShaderEEEEC2Ev+0x29b>
  403ad9:	48 bf c0 d6 61 00 00 	movabs $0x61d6c0,%rdi
  403ae0:	00 00 00 
  403ae3:	48 be 2a 8d 41 00 00 	movabs $0x418d2a,%rsi
  403aea:	00 00 00 
  403aed:	e8 6e e7 ff ff       	callq  402260 <_ZStlsISt11char_traitsIcEERSt13basic_ostreamIcT_ES5_PKc@plt>
  403af2:	48 be f2 8c 41 00 00 	movabs $0x418cf2,%rsi
  403af9:	00 00 00 
  403afc:	48 89 c7             	mov    %rax,%rdi
  403aff:	e8 5c e7 ff ff       	callq  402260 <_ZStlsISt11char_traitsIcEERSt13basic_ostreamIcT_ES5_PKc@plt>
  403b04:	48 be ad 8d 41 00 00 	movabs $0x418dad,%rsi
  403b0b:	00 00 00 
  403b0e:	48 89 c7             	mov    %rax,%rdi
  403b11:	e8 4a e7 ff ff       	callq  402260 <_ZStlsISt11char_traitsIcEERSt13basic_ostreamIcT_ES5_PKc@plt>
  403b16:	48 be 93 8c 41 00 00 	movabs $0x418c93,%rsi
  403b1d:	00 00 00 
  403b20:	48 89 c7             	mov    %rax,%rdi
  403b23:	e8 38 e7 ff ff       	callq  402260 <_ZStlsISt11char_traitsIcEERSt13basic_ostreamIcT_ES5_PKc@plt>
  403b28:	be 3e 00 00 00       	mov    $0x3e,%esi
  403b2d:	48 89 c7             	mov    %rax,%rdi
  403b30:	e8 8b e8 ff ff       	callq  4023c0 <_ZNSolsEi@plt>
  403b35:	48 be 80 21 40 00 00 	movabs $0x402180,%rsi
  403b3c:	00 00 00 
  403b3f:	48 89 c7             	mov    %rax,%rdi
  403b42:	e8 59 e7 ff ff       	callq  4022a0 <_ZNSolsEPFRSoS_E@plt>
  403b47:	48 89 45 c8          	mov    %rax,-0x38(%rbp)
  403b4b:	81 3c 25 d4 d7 61 00 	cmpl   $0x504,0x61d7d4
  403b52:	04 05 00 00 
  403b56:	0f 85 72 00 00 00    	jne    403bce <_ZN7jikoLib5GLLib6ShaderINS0_12VertexShaderENS0_11GLAllocatorINS0_12Alloc_ShaderEEEEC2Ev+0x31e>
  403b5c:	48 bf c0 d6 61 00 00 	movabs $0x61d6c0,%rdi
  403b63:	00 00 00 
  403b66:	48 be 3c 8d 41 00 00 	movabs $0x418d3c,%rsi
  403b6d:	00 00 00 
  403b70:	e8 eb e6 ff ff       	callq  402260 <_ZStlsISt11char_traitsIcEERSt13basic_ostreamIcT_ES5_PKc@plt>
  403b75:	48 be f2 8c 41 00 00 	movabs $0x418cf2,%rsi
  403b7c:	00 00 00 
  403b7f:	48 89 c7             	mov    %rax,%rdi
  403b82:	e8 d9 e6 ff ff       	callq  402260 <_ZStlsISt11char_traitsIcEERSt13basic_ostreamIcT_ES5_PKc@plt>
  403b87:	48 be ad 8d 41 00 00 	movabs $0x418dad,%rsi
  403b8e:	00 00 00 
  403b91:	48 89 c7             	mov    %rax,%rdi
  403b94:	e8 c7 e6 ff ff       	callq  402260 <_ZStlsISt11char_traitsIcEERSt13basic_ostreamIcT_ES5_PKc@plt>
  403b99:	48 be 93 8c 41 00 00 	movabs $0x418c93,%rsi
  403ba0:	00 00 00 
  403ba3:	48 89 c7             	mov    %rax,%rdi
  403ba6:	e8 b5 e6 ff ff       	callq  402260 <_ZStlsISt11char_traitsIcEERSt13basic_ostreamIcT_ES5_PKc@plt>
  403bab:	be 3e 00 00 00       	mov    $0x3e,%esi
  403bb0:	48 89 c7             	mov    %rax,%rdi
  403bb3:	e8 08 e8 ff ff       	callq  4023c0 <_ZNSolsEi@plt>
  403bb8:	48 be 80 21 40 00 00 	movabs $0x402180,%rsi
  403bbf:	00 00 00 
  403bc2:	48 89 c7             	mov    %rax,%rdi
  403bc5:	e8 d6 e6 ff ff       	callq  4022a0 <_ZNSolsEPFRSoS_E@plt>
  403bca:	48 89 45 c0          	mov    %rax,-0x40(%rbp)
  403bce:	81 3c 25 d4 d7 61 00 	cmpl   $0x505,0x61d7d4
  403bd5:	05 05 00 00 
  403bd9:	0f 85 72 00 00 00    	jne    403c51 <_ZN7jikoLib5GLLib6ShaderINS0_12VertexShaderENS0_11GLAllocatorINS0_12Alloc_ShaderEEEEC2Ev+0x3a1>
  403bdf:	48 bf c0 d6 61 00 00 	movabs $0x61d6c0,%rdi
  403be6:	00 00 00 
  403be9:	48 be 4f 8d 41 00 00 	movabs $0x418d4f,%rsi
  403bf0:	00 00 00 
  403bf3:	e8 68 e6 ff ff       	callq  402260 <_ZStlsISt11char_traitsIcEERSt13basic_ostreamIcT_ES5_PKc@plt>
  403bf8:	48 be f2 8c 41 00 00 	movabs $0x418cf2,%rsi
  403bff:	00 00 00 
  403c02:	48 89 c7             	mov    %rax,%rdi
  403c05:	e8 56 e6 ff ff       	callq  402260 <_ZStlsISt11char_traitsIcEERSt13basic_ostreamIcT_ES5_PKc@plt>
  403c0a:	48 be ad 8d 41 00 00 	movabs $0x418dad,%rsi
  403c11:	00 00 00 
  403c14:	48 89 c7             	mov    %rax,%rdi
  403c17:	e8 44 e6 ff ff       	callq  402260 <_ZStlsISt11char_traitsIcEERSt13basic_ostreamIcT_ES5_PKc@plt>
  403c1c:	48 be 93 8c 41 00 00 	movabs $0x418c93,%rsi
  403c23:	00 00 00 
  403c26:	48 89 c7             	mov    %rax,%rdi
  403c29:	e8 32 e6 ff ff       	callq  402260 <_ZStlsISt11char_traitsIcEERSt13basic_ostreamIcT_ES5_PKc@plt>
  403c2e:	be 3e 00 00 00       	mov    $0x3e,%esi
  403c33:	48 89 c7             	mov    %rax,%rdi
  403c36:	e8 85 e7 ff ff       	callq  4023c0 <_ZNSolsEi@plt>
  403c3b:	48 be 80 21 40 00 00 	movabs $0x402180,%rsi
  403c42:	00 00 00 
  403c45:	48 89 c7             	mov    %rax,%rdi
  403c48:	e8 53 e6 ff ff       	callq  4022a0 <_ZNSolsEPFRSoS_E@plt>
  403c4d:	48 89 45 b8          	mov    %rax,-0x48(%rbp)
  403c51:	81 3c 25 d4 d7 61 00 	cmpl   $0x8031,0x61d7d4
  403c58:	31 80 00 00 
  403c5c:	0f 85 72 00 00 00    	jne    403cd4 <_ZN7jikoLib5GLLib6ShaderINS0_12VertexShaderENS0_11GLAllocatorINS0_12Alloc_ShaderEEEEC2Ev+0x424>
  403c62:	48 bf c0 d6 61 00 00 	movabs $0x61d6c0,%rdi
  403c69:	00 00 00 
  403c6c:	48 be 60 8d 41 00 00 	movabs $0x418d60,%rsi
  403c73:	00 00 00 
  403c76:	e8 e5 e5 ff ff       	callq  402260 <_ZStlsISt11char_traitsIcEERSt13basic_ostreamIcT_ES5_PKc@plt>
  403c7b:	48 be f2 8c 41 00 00 	movabs $0x418cf2,%rsi
  403c82:	00 00 00 
  403c85:	48 89 c7             	mov    %rax,%rdi
  403c88:	e8 d3 e5 ff ff       	callq  402260 <_ZStlsISt11char_traitsIcEERSt13basic_ostreamIcT_ES5_PKc@plt>
  403c8d:	48 be ad 8d 41 00 00 	movabs $0x418dad,%rsi
  403c94:	00 00 00 
  403c97:	48 89 c7             	mov    %rax,%rdi
  403c9a:	e8 c1 e5 ff ff       	callq  402260 <_ZStlsISt11char_traitsIcEERSt13basic_ostreamIcT_ES5_PKc@plt>
  403c9f:	48 be 93 8c 41 00 00 	movabs $0x418c93,%rsi
  403ca6:	00 00 00 
  403ca9:	48 89 c7             	mov    %rax,%rdi
  403cac:	e8 af e5 ff ff       	callq  402260 <_ZStlsISt11char_traitsIcEERSt13basic_ostreamIcT_ES5_PKc@plt>
  403cb1:	be 3e 00 00 00       	mov    $0x3e,%esi
  403cb6:	48 89 c7             	mov    %rax,%rdi
  403cb9:	e8 02 e7 ff ff       	callq  4023c0 <_ZNSolsEi@plt>
  403cbe:	48 be 80 21 40 00 00 	movabs $0x402180,%rsi
  403cc5:	00 00 00 
  403cc8:	48 89 c7             	mov    %rax,%rdi
  403ccb:	e8 d0 e5 ff ff       	callq  4022a0 <_ZNSolsEPFRSoS_E@plt>
  403cd0:	48 89 45 b0          	mov    %rax,-0x50(%rbp)
  403cd4:	48 83 c4 50          	add    $0x50,%rsp
  403cd8:	5d                   	pop    %rbp
  403cd9:	c3                   	retq   
  403cda:	66 0f 1f 44 00 00    	nopw   0x0(%rax,%rax,1)

0000000000403ce0 <_ZN7jikoLib5GLLib6ShaderINS0_14FragmentShaderENS0_11GLAllocatorINS0_12Alloc_ShaderEEEEC2Ev>:
  403ce0:	55                   	push   %rbp
  403ce1:	48 89 e5             	mov    %rsp,%rbp
  403ce4:	48 83 ec 50          	sub    $0x50,%rsp
  403ce8:	48 89 7d f8          	mov    %rdi,-0x8(%rbp)
  403cec:	48 8b 7d f8          	mov    -0x8(%rbp),%rdi
  403cf0:	c6 47 04 00          	movb   $0x0,0x4(%rdi)
  403cf4:	48 89 f8             	mov    %rdi,%rax
  403cf7:	48 05 08 00 00 00    	add    $0x8,%rax
  403cfd:	48 89 7d f0          	mov    %rdi,-0x10(%rbp)
  403d01:	48 89 c7             	mov    %rax,%rdi
  403d04:	e8 f7 c1 00 00       	callq  40ff00 <_ZN7jikoLib5GLLib11GLAllocatorINS0_12Alloc_ShaderEEC2Ev>
  403d09:	be 30 8b 00 00       	mov    $0x8b30,%esi
  403d0e:	48 8b 45 f0          	mov    -0x10(%rbp),%rax
  403d12:	48 05 08 00 00 00    	add    $0x8,%rax
  403d18:	48 89 c7             	mov    %rax,%rdi
  403d1b:	e8 00 c2 00 00       	callq  40ff20 <_ZN7jikoLib5GLLib11GLAllocatorINS0_12Alloc_ShaderEE9constructIJjEEEjDpT_>
  403d20:	48 bf 40 d5 61 00 00 	movabs $0x61d540,%rdi
  403d27:	00 00 00 
  403d2a:	48 be 03 90 41 00 00 	movabs $0x419003,%rsi
  403d31:	00 00 00 
  403d34:	48 8b 4d f0          	mov    -0x10(%rbp),%rcx
  403d38:	89 01                	mov    %eax,(%rcx)
  403d3a:	e8 21 e5 ff ff       	callq  402260 <_ZStlsISt11char_traitsIcEERSt13basic_ostreamIcT_ES5_PKc@plt>
  403d3f:	48 8b 4d f0          	mov    -0x10(%rbp),%rcx
  403d43:	8b 31                	mov    (%rcx),%esi
  403d45:	48 89 c7             	mov    %rax,%rdi
  403d48:	e8 a3 e5 ff ff       	callq  4022f0 <_ZNSolsEj@plt>
  403d4d:	48 be 80 21 40 00 00 	movabs $0x402180,%rsi
  403d54:	00 00 00 
  403d57:	48 89 c7             	mov    %rax,%rdi
  403d5a:	e8 41 e5 ff ff       	callq  4022a0 <_ZNSolsEPFRSoS_E@plt>
  403d5f:	48 89 45 e8          	mov    %rax,-0x18(%rbp)
  403d63:	e8 28 e4 ff ff       	callq  402190 <glGetError@plt>
  403d68:	89 04 25 d4 d7 61 00 	mov    %eax,0x61d7d4
  403d6f:	81 3c 25 d4 d7 61 00 	cmpl   $0x500,0x61d7d4
  403d76:	00 05 00 00 
  403d7a:	0f 85 72 00 00 00    	jne    403df2 <_ZN7jikoLib5GLLib6ShaderINS0_14FragmentShaderENS0_11GLAllocatorINS0_12Alloc_ShaderEEEEC2Ev+0x112>
  403d80:	48 bf c0 d6 61 00 00 	movabs $0x61d6c0,%rdi
  403d87:	00 00 00 
  403d8a:	48 be e2 8c 41 00 00 	movabs $0x418ce2,%rsi
  403d91:	00 00 00 
  403d94:	e8 c7 e4 ff ff       	callq  402260 <_ZStlsISt11char_traitsIcEERSt13basic_ostreamIcT_ES5_PKc@plt>
  403d99:	48 be f2 8c 41 00 00 	movabs $0x418cf2,%rsi
  403da0:	00 00 00 
  403da3:	48 89 c7             	mov    %rax,%rdi
  403da6:	e8 b5 e4 ff ff       	callq  402260 <_ZStlsISt11char_traitsIcEERSt13basic_ostreamIcT_ES5_PKc@plt>
  403dab:	48 be ad 8d 41 00 00 	movabs $0x418dad,%rsi
  403db2:	00 00 00 
  403db5:	48 89 c7             	mov    %rax,%rdi
  403db8:	e8 a3 e4 ff ff       	callq  402260 <_ZStlsISt11char_traitsIcEERSt13basic_ostreamIcT_ES5_PKc@plt>
  403dbd:	48 be 93 8c 41 00 00 	movabs $0x418c93,%rsi
  403dc4:	00 00 00 
  403dc7:	48 89 c7             	mov    %rax,%rdi
  403dca:	e8 91 e4 ff ff       	callq  402260 <_ZStlsISt11char_traitsIcEERSt13basic_ostreamIcT_ES5_PKc@plt>
  403dcf:	be 3e 00 00 00       	mov    $0x3e,%esi
  403dd4:	48 89 c7             	mov    %rax,%rdi
  403dd7:	e8 e4 e5 ff ff       	callq  4023c0 <_ZNSolsEi@plt>
  403ddc:	48 be 80 21 40 00 00 	movabs $0x402180,%rsi
  403de3:	00 00 00 
  403de6:	48 89 c7             	mov    %rax,%rdi
  403de9:	e8 b2 e4 ff ff       	callq  4022a0 <_ZNSolsEPFRSoS_E@plt>
  403dee:	48 89 45 e0          	mov    %rax,-0x20(%rbp)
  403df2:	81 3c 25 d4 d7 61 00 	cmpl   $0x501,0x61d7d4
  403df9:	01 05 00 00 
  403dfd:	0f 85 72 00 00 00    	jne    403e75 <_ZN7jikoLib5GLLib6ShaderINS0_14FragmentShaderENS0_11GLAllocatorINS0_12Alloc_ShaderEEEEC2Ev+0x195>
  403e03:	48 bf c0 d6 61 00 00 	movabs $0x61d6c0,%rdi
  403e0a:	00 00 00 
  403e0d:	48 be 04 8d 41 00 00 	movabs $0x418d04,%rsi
  403e14:	00 00 00 
  403e17:	e8 44 e4 ff ff       	callq  402260 <_ZStlsISt11char_traitsIcEERSt13basic_ostreamIcT_ES5_PKc@plt>
  403e1c:	48 be f2 8c 41 00 00 	movabs $0x418cf2,%rsi
  403e23:	00 00 00 
  403e26:	48 89 c7             	mov    %rax,%rdi
  403e29:	e8 32 e4 ff ff       	callq  402260 <_ZStlsISt11char_traitsIcEERSt13basic_ostreamIcT_ES5_PKc@plt>
  403e2e:	48 be ad 8d 41 00 00 	movabs $0x418dad,%rsi
  403e35:	00 00 00 
  403e38:	48 89 c7             	mov    %rax,%rdi
  403e3b:	e8 20 e4 ff ff       	callq  402260 <_ZStlsISt11char_traitsIcEERSt13basic_ostreamIcT_ES5_PKc@plt>
  403e40:	48 be 93 8c 41 00 00 	movabs $0x418c93,%rsi
  403e47:	00 00 00 
  403e4a:	48 89 c7             	mov    %rax,%rdi
  403e4d:	e8 0e e4 ff ff       	callq  402260 <_ZStlsISt11char_traitsIcEERSt13basic_ostreamIcT_ES5_PKc@plt>
  403e52:	be 3e 00 00 00       	mov    $0x3e,%esi
  403e57:	48 89 c7             	mov    %rax,%rdi
  403e5a:	e8 61 e5 ff ff       	callq  4023c0 <_ZNSolsEi@plt>
  403e5f:	48 be 80 21 40 00 00 	movabs $0x402180,%rsi
  403e66:	00 00 00 
  403e69:	48 89 c7             	mov    %rax,%rdi
  403e6c:	e8 2f e4 ff ff       	callq  4022a0 <_ZNSolsEPFRSoS_E@plt>
  403e71:	48 89 45 d8          	mov    %rax,-0x28(%rbp)
  403e75:	81 3c 25 d4 d7 61 00 	cmpl   $0x502,0x61d7d4
  403e7c:	02 05 00 00 
  403e80:	0f 85 72 00 00 00    	jne    403ef8 <_ZN7jikoLib5GLLib6ShaderINS0_14FragmentShaderENS0_11GLAllocatorINS0_12Alloc_ShaderEEEEC2Ev+0x218>
  403e86:	48 bf c0 d6 61 00 00 	movabs $0x61d6c0,%rdi
  403e8d:	00 00 00 
  403e90:	48 be 15 8d 41 00 00 	movabs $0x418d15,%rsi
  403e97:	00 00 00 
  403e9a:	e8 c1 e3 ff ff       	callq  402260 <_ZStlsISt11char_traitsIcEERSt13basic_ostreamIcT_ES5_PKc@plt>
  403e9f:	48 be f2 8c 41 00 00 	movabs $0x418cf2,%rsi
  403ea6:	00 00 00 
  403ea9:	48 89 c7             	mov    %rax,%rdi
  403eac:	e8 af e3 ff ff       	callq  402260 <_ZStlsISt11char_traitsIcEERSt13basic_ostreamIcT_ES5_PKc@plt>
  403eb1:	48 be ad 8d 41 00 00 	movabs $0x418dad,%rsi
  403eb8:	00 00 00 
  403ebb:	48 89 c7             	mov    %rax,%rdi
  403ebe:	e8 9d e3 ff ff       	callq  402260 <_ZStlsISt11char_traitsIcEERSt13basic_ostreamIcT_ES5_PKc@plt>
  403ec3:	48 be 93 8c 41 00 00 	movabs $0x418c93,%rsi
  403eca:	00 00 00 
  403ecd:	48 89 c7             	mov    %rax,%rdi
  403ed0:	e8 8b e3 ff ff       	callq  402260 <_ZStlsISt11char_traitsIcEERSt13basic_ostreamIcT_ES5_PKc@plt>
  403ed5:	be 3e 00 00 00       	mov    $0x3e,%esi
  403eda:	48 89 c7             	mov    %rax,%rdi
  403edd:	e8 de e4 ff ff       	callq  4023c0 <_ZNSolsEi@plt>
  403ee2:	48 be 80 21 40 00 00 	movabs $0x402180,%rsi
  403ee9:	00 00 00 
  403eec:	48 89 c7             	mov    %rax,%rdi
  403eef:	e8 ac e3 ff ff       	callq  4022a0 <_ZNSolsEPFRSoS_E@plt>
  403ef4:	48 89 45 d0          	mov    %rax,-0x30(%rbp)
  403ef8:	81 3c 25 d4 d7 61 00 	cmpl   $0x503,0x61d7d4
  403eff:	03 05 00 00 
  403f03:	0f 85 72 00 00 00    	jne    403f7b <_ZN7jikoLib5GLLib6ShaderINS0_14FragmentShaderENS0_11GLAllocatorINS0_12Alloc_ShaderEEEEC2Ev+0x29b>
  403f09:	48 bf c0 d6 61 00 00 	movabs $0x61d6c0,%rdi
  403f10:	00 00 00 
  403f13:	48 be 2a 8d 41 00 00 	movabs $0x418d2a,%rsi
  403f1a:	00 00 00 
  403f1d:	e8 3e e3 ff ff       	callq  402260 <_ZStlsISt11char_traitsIcEERSt13basic_ostreamIcT_ES5_PKc@plt>
  403f22:	48 be f2 8c 41 00 00 	movabs $0x418cf2,%rsi
  403f29:	00 00 00 
  403f2c:	48 89 c7             	mov    %rax,%rdi
  403f2f:	e8 2c e3 ff ff       	callq  402260 <_ZStlsISt11char_traitsIcEERSt13basic_ostreamIcT_ES5_PKc@plt>
  403f34:	48 be ad 8d 41 00 00 	movabs $0x418dad,%rsi
  403f3b:	00 00 00 
  403f3e:	48 89 c7             	mov    %rax,%rdi
  403f41:	e8 1a e3 ff ff       	callq  402260 <_ZStlsISt11char_traitsIcEERSt13basic_ostreamIcT_ES5_PKc@plt>
  403f46:	48 be 93 8c 41 00 00 	movabs $0x418c93,%rsi
  403f4d:	00 00 00 
  403f50:	48 89 c7             	mov    %rax,%rdi
  403f53:	e8 08 e3 ff ff       	callq  402260 <_ZStlsISt11char_traitsIcEERSt13basic_ostreamIcT_ES5_PKc@plt>
  403f58:	be 3e 00 00 00       	mov    $0x3e,%esi
  403f5d:	48 89 c7             	mov    %rax,%rdi
  403f60:	e8 5b e4 ff ff       	callq  4023c0 <_ZNSolsEi@plt>
  403f65:	48 be 80 21 40 00 00 	movabs $0x402180,%rsi
  403f6c:	00 00 00 
  403f6f:	48 89 c7             	mov    %rax,%rdi
  403f72:	e8 29 e3 ff ff       	callq  4022a0 <_ZNSolsEPFRSoS_E@plt>
  403f77:	48 89 45 c8          	mov    %rax,-0x38(%rbp)
  403f7b:	81 3c 25 d4 d7 61 00 	cmpl   $0x504,0x61d7d4
  403f82:	04 05 00 00 
  403f86:	0f 85 72 00 00 00    	jne    403ffe <_ZN7jikoLib5GLLib6ShaderINS0_14FragmentShaderENS0_11GLAllocatorINS0_12Alloc_ShaderEEEEC2Ev+0x31e>
  403f8c:	48 bf c0 d6 61 00 00 	movabs $0x61d6c0,%rdi
  403f93:	00 00 00 
  403f96:	48 be 3c 8d 41 00 00 	movabs $0x418d3c,%rsi
  403f9d:	00 00 00 
  403fa0:	e8 bb e2 ff ff       	callq  402260 <_ZStlsISt11char_traitsIcEERSt13basic_ostreamIcT_ES5_PKc@plt>
  403fa5:	48 be f2 8c 41 00 00 	movabs $0x418cf2,%rsi
  403fac:	00 00 00 
  403faf:	48 89 c7             	mov    %rax,%rdi
  403fb2:	e8 a9 e2 ff ff       	callq  402260 <_ZStlsISt11char_traitsIcEERSt13basic_ostreamIcT_ES5_PKc@plt>
  403fb7:	48 be ad 8d 41 00 00 	movabs $0x418dad,%rsi
  403fbe:	00 00 00 
  403fc1:	48 89 c7             	mov    %rax,%rdi
  403fc4:	e8 97 e2 ff ff       	callq  402260 <_ZStlsISt11char_traitsIcEERSt13basic_ostreamIcT_ES5_PKc@plt>
  403fc9:	48 be 93 8c 41 00 00 	movabs $0x418c93,%rsi
  403fd0:	00 00 00 
  403fd3:	48 89 c7             	mov    %rax,%rdi
  403fd6:	e8 85 e2 ff ff       	callq  402260 <_ZStlsISt11char_traitsIcEERSt13basic_ostreamIcT_ES5_PKc@plt>
  403fdb:	be 3e 00 00 00       	mov    $0x3e,%esi
  403fe0:	48 89 c7             	mov    %rax,%rdi
  403fe3:	e8 d8 e3 ff ff       	callq  4023c0 <_ZNSolsEi@plt>
  403fe8:	48 be 80 21 40 00 00 	movabs $0x402180,%rsi
  403fef:	00 00 00 
  403ff2:	48 89 c7             	mov    %rax,%rdi
  403ff5:	e8 a6 e2 ff ff       	callq  4022a0 <_ZNSolsEPFRSoS_E@plt>
  403ffa:	48 89 45 c0          	mov    %rax,-0x40(%rbp)
  403ffe:	81 3c 25 d4 d7 61 00 	cmpl   $0x505,0x61d7d4
  404005:	05 05 00 00 
  404009:	0f 85 72 00 00 00    	jne    404081 <_ZN7jikoLib5GLLib6ShaderINS0_14FragmentShaderENS0_11GLAllocatorINS0_12Alloc_ShaderEEEEC2Ev+0x3a1>
  40400f:	48 bf c0 d6 61 00 00 	movabs $0x61d6c0,%rdi
  404016:	00 00 00 
  404019:	48 be 4f 8d 41 00 00 	movabs $0x418d4f,%rsi
  404020:	00 00 00 
  404023:	e8 38 e2 ff ff       	callq  402260 <_ZStlsISt11char_traitsIcEERSt13basic_ostreamIcT_ES5_PKc@plt>
  404028:	48 be f2 8c 41 00 00 	movabs $0x418cf2,%rsi
  40402f:	00 00 00 
  404032:	48 89 c7             	mov    %rax,%rdi
  404035:	e8 26 e2 ff ff       	callq  402260 <_ZStlsISt11char_traitsIcEERSt13basic_ostreamIcT_ES5_PKc@plt>
  40403a:	48 be ad 8d 41 00 00 	movabs $0x418dad,%rsi
  404041:	00 00 00 
  404044:	48 89 c7             	mov    %rax,%rdi
  404047:	e8 14 e2 ff ff       	callq  402260 <_ZStlsISt11char_traitsIcEERSt13basic_ostreamIcT_ES5_PKc@plt>
  40404c:	48 be 93 8c 41 00 00 	movabs $0x418c93,%rsi
  404053:	00 00 00 
  404056:	48 89 c7             	mov    %rax,%rdi
  404059:	e8 02 e2 ff ff       	callq  402260 <_ZStlsISt11char_traitsIcEERSt13basic_ostreamIcT_ES5_PKc@plt>
  40405e:	be 3e 00 00 00       	mov    $0x3e,%esi
  404063:	48 89 c7             	mov    %rax,%rdi
  404066:	e8 55 e3 ff ff       	callq  4023c0 <_ZNSolsEi@plt>
  40406b:	48 be 80 21 40 00 00 	movabs $0x402180,%rsi
  404072:	00 00 00 
  404075:	48 89 c7             	mov    %rax,%rdi
  404078:	e8 23 e2 ff ff       	callq  4022a0 <_ZNSolsEPFRSoS_E@plt>
  40407d:	48 89 45 b8          	mov    %rax,-0x48(%rbp)
  404081:	81 3c 25 d4 d7 61 00 	cmpl   $0x8031,0x61d7d4
  404088:	31 80 00 00 
  40408c:	0f 85 72 00 00 00    	jne    404104 <_ZN7jikoLib5GLLib6ShaderINS0_14FragmentShaderENS0_11GLAllocatorINS0_12Alloc_ShaderEEEEC2Ev+0x424>
  404092:	48 bf c0 d6 61 00 00 	movabs $0x61d6c0,%rdi
  404099:	00 00 00 
  40409c:	48 be 60 8d 41 00 00 	movabs $0x418d60,%rsi
  4040a3:	00 00 00 
  4040a6:	e8 b5 e1 ff ff       	callq  402260 <_ZStlsISt11char_traitsIcEERSt13basic_ostreamIcT_ES5_PKc@plt>
  4040ab:	48 be f2 8c 41 00 00 	movabs $0x418cf2,%rsi
  4040b2:	00 00 00 
  4040b5:	48 89 c7             	mov    %rax,%rdi
  4040b8:	e8 a3 e1 ff ff       	callq  402260 <_ZStlsISt11char_traitsIcEERSt13basic_ostreamIcT_ES5_PKc@plt>
  4040bd:	48 be ad 8d 41 00 00 	movabs $0x418dad,%rsi
  4040c4:	00 00 00 
  4040c7:	48 89 c7             	mov    %rax,%rdi
  4040ca:	e8 91 e1 ff ff       	callq  402260 <_ZStlsISt11char_traitsIcEERSt13basic_ostreamIcT_ES5_PKc@plt>
  4040cf:	48 be 93 8c 41 00 00 	movabs $0x418c93,%rsi
  4040d6:	00 00 00 
  4040d9:	48 89 c7             	mov    %rax,%rdi
  4040dc:	e8 7f e1 ff ff       	callq  402260 <_ZStlsISt11char_traitsIcEERSt13basic_ostreamIcT_ES5_PKc@plt>
  4040e1:	be 3e 00 00 00       	mov    $0x3e,%esi
  4040e6:	48 89 c7             	mov    %rax,%rdi
  4040e9:	e8 d2 e2 ff ff       	callq  4023c0 <_ZNSolsEi@plt>
  4040ee:	48 be 80 21 40 00 00 	movabs $0x402180,%rsi
  4040f5:	00 00 00 
  4040f8:	48 89 c7             	mov    %rax,%rdi
  4040fb:	e8 a0 e1 ff ff       	callq  4022a0 <_ZNSolsEPFRSoS_E@plt>
  404100:	48 89 45 b0          	mov    %rax,-0x50(%rbp)
  404104:	48 83 c4 50          	add    $0x50,%rsp
  404108:	5d                   	pop    %rbp
  404109:	c3                   	retq   
  40410a:	66 0f 1f 44 00 00    	nopw   0x0(%rax,%rax,1)

0000000000404110 <_ZN7jikoLib5GLLib10ShaderProgINS0_11GLAllocatorINS0_16Alloc_ShaderProgEEEEC2Ev>:
  404110:	55                   	push   %rbp
  404111:	48 89 e5             	mov    %rsp,%rbp
  404114:	48 83 ec 50          	sub    $0x50,%rsp
  404118:	48 89 7d f8          	mov    %rdi,-0x8(%rbp)
  40411c:	48 8b 7d f8          	mov    -0x8(%rbp),%rdi
  404120:	c6 47 04 00          	movb   $0x0,0x4(%rdi)
  404124:	48 89 f8             	mov    %rdi,%rax
  404127:	48 05 08 00 00 00    	add    $0x8,%rax
  40412d:	48 89 7d f0          	mov    %rdi,-0x10(%rbp)
  404131:	48 89 c7             	mov    %rax,%rdi
  404134:	e8 b7 bc 00 00       	callq  40fdf0 <_ZN7jikoLib5GLLib11GLAllocatorINS0_16Alloc_ShaderProgEEC2Ev>
  404139:	48 8b 45 f0          	mov    -0x10(%rbp),%rax
  40413d:	48 05 08 00 00 00    	add    $0x8,%rax
  404143:	48 89 c7             	mov    %rax,%rdi
  404146:	e8 c5 bc 00 00       	callq  40fe10 <_ZN7jikoLib5GLLib11GLAllocatorINS0_16Alloc_ShaderProgEE9constructIJEEEjDpT_>
  40414b:	48 8b 7d f0          	mov    -0x10(%rbp),%rdi
  40414f:	89 07                	mov    %eax,(%rdi)
  404151:	e8 3a e0 ff ff       	callq  402190 <glGetError@plt>
  404156:	89 04 25 d4 d7 61 00 	mov    %eax,0x61d7d4
  40415d:	81 3c 25 d4 d7 61 00 	cmpl   $0x500,0x61d7d4
  404164:	00 05 00 00 
  404168:	0f 85 72 00 00 00    	jne    4041e0 <_ZN7jikoLib5GLLib10ShaderProgINS0_11GLAllocatorINS0_16Alloc_ShaderProgEEEEC2Ev+0xd0>
  40416e:	48 bf c0 d6 61 00 00 	movabs $0x61d6c0,%rdi
  404175:	00 00 00 
  404178:	48 be e2 8c 41 00 00 	movabs $0x418ce2,%rsi
  40417f:	00 00 00 
  404182:	e8 d9 e0 ff ff       	callq  402260 <_ZStlsISt11char_traitsIcEERSt13basic_ostreamIcT_ES5_PKc@plt>
  404187:	48 be f2 8c 41 00 00 	movabs $0x418cf2,%rsi
  40418e:	00 00 00 
  404191:	48 89 c7             	mov    %rax,%rdi
  404194:	e8 c7 e0 ff ff       	callq  402260 <_ZStlsISt11char_traitsIcEERSt13basic_ostreamIcT_ES5_PKc@plt>
  404199:	48 be ad 8d 41 00 00 	movabs $0x418dad,%rsi
  4041a0:	00 00 00 
  4041a3:	48 89 c7             	mov    %rax,%rdi
  4041a6:	e8 b5 e0 ff ff       	callq  402260 <_ZStlsISt11char_traitsIcEERSt13basic_ostreamIcT_ES5_PKc@plt>
  4041ab:	48 be 93 8c 41 00 00 	movabs $0x418c93,%rsi
  4041b2:	00 00 00 
  4041b5:	48 89 c7             	mov    %rax,%rdi
  4041b8:	e8 a3 e0 ff ff       	callq  402260 <_ZStlsISt11char_traitsIcEERSt13basic_ostreamIcT_ES5_PKc@plt>
  4041bd:	be ba 00 00 00       	mov    $0xba,%esi
  4041c2:	48 89 c7             	mov    %rax,%rdi
  4041c5:	e8 f6 e1 ff ff       	callq  4023c0 <_ZNSolsEi@plt>
  4041ca:	48 be 80 21 40 00 00 	movabs $0x402180,%rsi
  4041d1:	00 00 00 
  4041d4:	48 89 c7             	mov    %rax,%rdi
  4041d7:	e8 c4 e0 ff ff       	callq  4022a0 <_ZNSolsEPFRSoS_E@plt>
  4041dc:	48 89 45 e8          	mov    %rax,-0x18(%rbp)
  4041e0:	81 3c 25 d4 d7 61 00 	cmpl   $0x501,0x61d7d4
  4041e7:	01 05 00 00 
  4041eb:	0f 85 72 00 00 00    	jne    404263 <_ZN7jikoLib5GLLib10ShaderProgINS0_11GLAllocatorINS0_16Alloc_ShaderProgEEEEC2Ev+0x153>
  4041f1:	48 bf c0 d6 61 00 00 	movabs $0x61d6c0,%rdi
  4041f8:	00 00 00 
  4041fb:	48 be 04 8d 41 00 00 	movabs $0x418d04,%rsi
  404202:	00 00 00 
  404205:	e8 56 e0 ff ff       	callq  402260 <_ZStlsISt11char_traitsIcEERSt13basic_ostreamIcT_ES5_PKc@plt>
  40420a:	48 be f2 8c 41 00 00 	movabs $0x418cf2,%rsi
  404211:	00 00 00 
  404214:	48 89 c7             	mov    %rax,%rdi
  404217:	e8 44 e0 ff ff       	callq  402260 <_ZStlsISt11char_traitsIcEERSt13basic_ostreamIcT_ES5_PKc@plt>
  40421c:	48 be ad 8d 41 00 00 	movabs $0x418dad,%rsi
  404223:	00 00 00 
  404226:	48 89 c7             	mov    %rax,%rdi
  404229:	e8 32 e0 ff ff       	callq  402260 <_ZStlsISt11char_traitsIcEERSt13basic_ostreamIcT_ES5_PKc@plt>
  40422e:	48 be 93 8c 41 00 00 	movabs $0x418c93,%rsi
  404235:	00 00 00 
  404238:	48 89 c7             	mov    %rax,%rdi
  40423b:	e8 20 e0 ff ff       	callq  402260 <_ZStlsISt11char_traitsIcEERSt13basic_ostreamIcT_ES5_PKc@plt>
  404240:	be ba 00 00 00       	mov    $0xba,%esi
  404245:	48 89 c7             	mov    %rax,%rdi
  404248:	e8 73 e1 ff ff       	callq  4023c0 <_ZNSolsEi@plt>
  40424d:	48 be 80 21 40 00 00 	movabs $0x402180,%rsi
  404254:	00 00 00 
  404257:	48 89 c7             	mov    %rax,%rdi
  40425a:	e8 41 e0 ff ff       	callq  4022a0 <_ZNSolsEPFRSoS_E@plt>
  40425f:	48 89 45 e0          	mov    %rax,-0x20(%rbp)
  404263:	81 3c 25 d4 d7 61 00 	cmpl   $0x502,0x61d7d4
  40426a:	02 05 00 00 
  40426e:	0f 85 72 00 00 00    	jne    4042e6 <_ZN7jikoLib5GLLib10ShaderProgINS0_11GLAllocatorINS0_16Alloc_ShaderProgEEEEC2Ev+0x1d6>
  404274:	48 bf c0 d6 61 00 00 	movabs $0x61d6c0,%rdi
  40427b:	00 00 00 
  40427e:	48 be 15 8d 41 00 00 	movabs $0x418d15,%rsi
  404285:	00 00 00 
  404288:	e8 d3 df ff ff       	callq  402260 <_ZStlsISt11char_traitsIcEERSt13basic_ostreamIcT_ES5_PKc@plt>
  40428d:	48 be f2 8c 41 00 00 	movabs $0x418cf2,%rsi
  404294:	00 00 00 
  404297:	48 89 c7             	mov    %rax,%rdi
  40429a:	e8 c1 df ff ff       	callq  402260 <_ZStlsISt11char_traitsIcEERSt13basic_ostreamIcT_ES5_PKc@plt>
  40429f:	48 be ad 8d 41 00 00 	movabs $0x418dad,%rsi
  4042a6:	00 00 00 
  4042a9:	48 89 c7             	mov    %rax,%rdi
  4042ac:	e8 af df ff ff       	callq  402260 <_ZStlsISt11char_traitsIcEERSt13basic_ostreamIcT_ES5_PKc@plt>
  4042b1:	48 be 93 8c 41 00 00 	movabs $0x418c93,%rsi
  4042b8:	00 00 00 
  4042bb:	48 89 c7             	mov    %rax,%rdi
  4042be:	e8 9d df ff ff       	callq  402260 <_ZStlsISt11char_traitsIcEERSt13basic_ostreamIcT_ES5_PKc@plt>
  4042c3:	be ba 00 00 00       	mov    $0xba,%esi
  4042c8:	48 89 c7             	mov    %rax,%rdi
  4042cb:	e8 f0 e0 ff ff       	callq  4023c0 <_ZNSolsEi@plt>
  4042d0:	48 be 80 21 40 00 00 	movabs $0x402180,%rsi
  4042d7:	00 00 00 
  4042da:	48 89 c7             	mov    %rax,%rdi
  4042dd:	e8 be df ff ff       	callq  4022a0 <_ZNSolsEPFRSoS_E@plt>
  4042e2:	48 89 45 d8          	mov    %rax,-0x28(%rbp)
  4042e6:	81 3c 25 d4 d7 61 00 	cmpl   $0x503,0x61d7d4
  4042ed:	03 05 00 00 
  4042f1:	0f 85 72 00 00 00    	jne    404369 <_ZN7jikoLib5GLLib10ShaderProgINS0_11GLAllocatorINS0_16Alloc_ShaderProgEEEEC2Ev+0x259>
  4042f7:	48 bf c0 d6 61 00 00 	movabs $0x61d6c0,%rdi
  4042fe:	00 00 00 
  404301:	48 be 2a 8d 41 00 00 	movabs $0x418d2a,%rsi
  404308:	00 00 00 
  40430b:	e8 50 df ff ff       	callq  402260 <_ZStlsISt11char_traitsIcEERSt13basic_ostreamIcT_ES5_PKc@plt>
  404310:	48 be f2 8c 41 00 00 	movabs $0x418cf2,%rsi
  404317:	00 00 00 
  40431a:	48 89 c7             	mov    %rax,%rdi
  40431d:	e8 3e df ff ff       	callq  402260 <_ZStlsISt11char_traitsIcEERSt13basic_ostreamIcT_ES5_PKc@plt>
  404322:	48 be ad 8d 41 00 00 	movabs $0x418dad,%rsi
  404329:	00 00 00 
  40432c:	48 89 c7             	mov    %rax,%rdi
  40432f:	e8 2c df ff ff       	callq  402260 <_ZStlsISt11char_traitsIcEERSt13basic_ostreamIcT_ES5_PKc@plt>
  404334:	48 be 93 8c 41 00 00 	movabs $0x418c93,%rsi
  40433b:	00 00 00 
  40433e:	48 89 c7             	mov    %rax,%rdi
  404341:	e8 1a df ff ff       	callq  402260 <_ZStlsISt11char_traitsIcEERSt13basic_ostreamIcT_ES5_PKc@plt>
  404346:	be ba 00 00 00       	mov    $0xba,%esi
  40434b:	48 89 c7             	mov    %rax,%rdi
  40434e:	e8 6d e0 ff ff       	callq  4023c0 <_ZNSolsEi@plt>
  404353:	48 be 80 21 40 00 00 	movabs $0x402180,%rsi
  40435a:	00 00 00 
  40435d:	48 89 c7             	mov    %rax,%rdi
  404360:	e8 3b df ff ff       	callq  4022a0 <_ZNSolsEPFRSoS_E@plt>
  404365:	48 89 45 d0          	mov    %rax,-0x30(%rbp)
  404369:	81 3c 25 d4 d7 61 00 	cmpl   $0x504,0x61d7d4
  404370:	04 05 00 00 
  404374:	0f 85 72 00 00 00    	jne    4043ec <_ZN7jikoLib5GLLib10ShaderProgINS0_11GLAllocatorINS0_16Alloc_ShaderProgEEEEC2Ev+0x2dc>
  40437a:	48 bf c0 d6 61 00 00 	movabs $0x61d6c0,%rdi
  404381:	00 00 00 
  404384:	48 be 3c 8d 41 00 00 	movabs $0x418d3c,%rsi
  40438b:	00 00 00 
  40438e:	e8 cd de ff ff       	callq  402260 <_ZStlsISt11char_traitsIcEERSt13basic_ostreamIcT_ES5_PKc@plt>
  404393:	48 be f2 8c 41 00 00 	movabs $0x418cf2,%rsi
  40439a:	00 00 00 
  40439d:	48 89 c7             	mov    %rax,%rdi
  4043a0:	e8 bb de ff ff       	callq  402260 <_ZStlsISt11char_traitsIcEERSt13basic_ostreamIcT_ES5_PKc@plt>
  4043a5:	48 be ad 8d 41 00 00 	movabs $0x418dad,%rsi
  4043ac:	00 00 00 
  4043af:	48 89 c7             	mov    %rax,%rdi
  4043b2:	e8 a9 de ff ff       	callq  402260 <_ZStlsISt11char_traitsIcEERSt13basic_ostreamIcT_ES5_PKc@plt>
  4043b7:	48 be 93 8c 41 00 00 	movabs $0x418c93,%rsi
  4043be:	00 00 00 
  4043c1:	48 89 c7             	mov    %rax,%rdi
  4043c4:	e8 97 de ff ff       	callq  402260 <_ZStlsISt11char_traitsIcEERSt13basic_ostreamIcT_ES5_PKc@plt>
  4043c9:	be ba 00 00 00       	mov    $0xba,%esi
  4043ce:	48 89 c7             	mov    %rax,%rdi
  4043d1:	e8 ea df ff ff       	callq  4023c0 <_ZNSolsEi@plt>
  4043d6:	48 be 80 21 40 00 00 	movabs $0x402180,%rsi
  4043dd:	00 00 00 
  4043e0:	48 89 c7             	mov    %rax,%rdi
  4043e3:	e8 b8 de ff ff       	callq  4022a0 <_ZNSolsEPFRSoS_E@plt>
  4043e8:	48 89 45 c8          	mov    %rax,-0x38(%rbp)
  4043ec:	81 3c 25 d4 d7 61 00 	cmpl   $0x505,0x61d7d4
  4043f3:	05 05 00 00 
  4043f7:	0f 85 72 00 00 00    	jne    40446f <_ZN7jikoLib5GLLib10ShaderProgINS0_11GLAllocatorINS0_16Alloc_ShaderProgEEEEC2Ev+0x35f>
  4043fd:	48 bf c0 d6 61 00 00 	movabs $0x61d6c0,%rdi
  404404:	00 00 00 
  404407:	48 be 4f 8d 41 00 00 	movabs $0x418d4f,%rsi
  40440e:	00 00 00 
  404411:	e8 4a de ff ff       	callq  402260 <_ZStlsISt11char_traitsIcEERSt13basic_ostreamIcT_ES5_PKc@plt>
  404416:	48 be f2 8c 41 00 00 	movabs $0x418cf2,%rsi
  40441d:	00 00 00 
  404420:	48 89 c7             	mov    %rax,%rdi
  404423:	e8 38 de ff ff       	callq  402260 <_ZStlsISt11char_traitsIcEERSt13basic_ostreamIcT_ES5_PKc@plt>
  404428:	48 be ad 8d 41 00 00 	movabs $0x418dad,%rsi
  40442f:	00 00 00 
  404432:	48 89 c7             	mov    %rax,%rdi
  404435:	e8 26 de ff ff       	callq  402260 <_ZStlsISt11char_traitsIcEERSt13basic_ostreamIcT_ES5_PKc@plt>
  40443a:	48 be 93 8c 41 00 00 	movabs $0x418c93,%rsi
  404441:	00 00 00 
  404444:	48 89 c7             	mov    %rax,%rdi
  404447:	e8 14 de ff ff       	callq  402260 <_ZStlsISt11char_traitsIcEERSt13basic_ostreamIcT_ES5_PKc@plt>
  40444c:	be ba 00 00 00       	mov    $0xba,%esi
  404451:	48 89 c7             	mov    %rax,%rdi
  404454:	e8 67 df ff ff       	callq  4023c0 <_ZNSolsEi@plt>
  404459:	48 be 80 21 40 00 00 	movabs $0x402180,%rsi
  404460:	00 00 00 
  404463:	48 89 c7             	mov    %rax,%rdi
  404466:	e8 35 de ff ff       	callq  4022a0 <_ZNSolsEPFRSoS_E@plt>
  40446b:	48 89 45 c0          	mov    %rax,-0x40(%rbp)
  40446f:	81 3c 25 d4 d7 61 00 	cmpl   $0x8031,0x61d7d4
  404476:	31 80 00 00 
  40447a:	0f 85 72 00 00 00    	jne    4044f2 <_ZN7jikoLib5GLLib10ShaderProgINS0_11GLAllocatorINS0_16Alloc_ShaderProgEEEEC2Ev+0x3e2>
  404480:	48 bf c0 d6 61 00 00 	movabs $0x61d6c0,%rdi
  404487:	00 00 00 
  40448a:	48 be 60 8d 41 00 00 	movabs $0x418d60,%rsi
  404491:	00 00 00 
  404494:	e8 c7 dd ff ff       	callq  402260 <_ZStlsISt11char_traitsIcEERSt13basic_ostreamIcT_ES5_PKc@plt>
  404499:	48 be f2 8c 41 00 00 	movabs $0x418cf2,%rsi
  4044a0:	00 00 00 
  4044a3:	48 89 c7             	mov    %rax,%rdi
  4044a6:	e8 b5 dd ff ff       	callq  402260 <_ZStlsISt11char_traitsIcEERSt13basic_ostreamIcT_ES5_PKc@plt>
  4044ab:	48 be ad 8d 41 00 00 	movabs $0x418dad,%rsi
  4044b2:	00 00 00 
  4044b5:	48 89 c7             	mov    %rax,%rdi
  4044b8:	e8 a3 dd ff ff       	callq  402260 <_ZStlsISt11char_traitsIcEERSt13basic_ostreamIcT_ES5_PKc@plt>
  4044bd:	48 be 93 8c 41 00 00 	movabs $0x418c93,%rsi
  4044c4:	00 00 00 
  4044c7:	48 89 c7             	mov    %rax,%rdi
  4044ca:	e8 91 dd ff ff       	callq  402260 <_ZStlsISt11char_traitsIcEERSt13basic_ostreamIcT_ES5_PKc@plt>
  4044cf:	be ba 00 00 00       	mov    $0xba,%esi
  4044d4:	48 89 c7             	mov    %rax,%rdi
  4044d7:	e8 e4 de ff ff       	callq  4023c0 <_ZNSolsEi@plt>
  4044dc:	48 be 80 21 40 00 00 	movabs $0x402180,%rsi
  4044e3:	00 00 00 
  4044e6:	48 89 c7             	mov    %rax,%rdi
  4044e9:	e8 b2 dd ff ff       	callq  4022a0 <_ZNSolsEPFRSoS_E@plt>
  4044ee:	48 89 45 b8          	mov    %rax,-0x48(%rbp)
  4044f2:	48 bf 40 d5 61 00 00 	movabs $0x61d540,%rdi
  4044f9:	00 00 00 
  4044fc:	48 be d2 8f 41 00 00 	movabs $0x418fd2,%rsi
  404503:	00 00 00 
  404506:	e8 55 dd ff ff       	callq  402260 <_ZStlsISt11char_traitsIcEERSt13basic_ostreamIcT_ES5_PKc@plt>
  40450b:	48 8b 75 f0          	mov    -0x10(%rbp),%rsi
  40450f:	8b 36                	mov    (%rsi),%esi
  404511:	48 89 c7             	mov    %rax,%rdi
  404514:	e8 d7 dd ff ff       	callq  4022f0 <_ZNSolsEj@plt>
  404519:	48 be 80 21 40 00 00 	movabs $0x402180,%rsi
  404520:	00 00 00 
  404523:	48 89 c7             	mov    %rax,%rdi
  404526:	e8 75 dd ff ff       	callq  4022a0 <_ZNSolsEPFRSoS_E@plt>
  40452b:	48 89 45 b0          	mov    %rax,-0x50(%rbp)
  40452f:	48 83 c4 50          	add    $0x50,%rsp
  404533:	5d                   	pop    %rbp
  404534:	c3                   	retq   
  404535:	66 2e 0f 1f 84 00 00 	nopw   %cs:0x0(%rax,%rax,1)
  40453c:	00 00 00 
  40453f:	90                   	nop

0000000000404540 <_ZN7jikoLib5GLLib6ShaderINS0_12VertexShaderENS0_11GLAllocatorINS0_12Alloc_ShaderEEEElsERKSs>:
  404540:	55                   	push   %rbp
  404541:	48 89 e5             	mov    %rsp,%rbp
  404544:	48 81 ec 80 01 00 00 	sub    $0x180,%rsp
  40454b:	48 89 7d f8          	mov    %rdi,-0x8(%rbp)
  40454f:	48 89 75 f0          	mov    %rsi,-0x10(%rbp)
  404553:	48 8b 75 f8          	mov    -0x8(%rbp),%rsi
  404557:	48 8b 7d f0          	mov    -0x10(%rbp),%rdi
  40455b:	48 89 75 c8          	mov    %rsi,-0x38(%rbp)
  40455f:	e8 ac dd ff ff       	callq  402310 <_ZNKSs5c_strEv@plt>
  404564:	48 89 45 e8          	mov    %rax,-0x18(%rbp)
  404568:	48 8b 7d f0          	mov    -0x10(%rbp),%rdi
  40456c:	e8 cf de ff ff       	callq  402440 <_ZNKSs6lengthEv@plt>
  404571:	be 01 00 00 00       	mov    $0x1,%esi
  404576:	48 8d 55 e8          	lea    -0x18(%rbp),%rdx
  40457a:	48 8d 4d e4          	lea    -0x1c(%rbp),%rcx
  40457e:	41 89 c0             	mov    %eax,%r8d
  404581:	44 89 45 e4          	mov    %r8d,-0x1c(%rbp)
  404585:	48 8b 04 25 f8 d4 61 	mov    0x61d4f8,%rax
  40458c:	00 
  40458d:	48 8b 7d c8          	mov    -0x38(%rbp),%rdi
  404591:	8b 3f                	mov    (%rdi),%edi
  404593:	ff d0                	callq  *%rax
  404595:	e8 f6 db ff ff       	callq  402190 <glGetError@plt>
  40459a:	89 04 25 d4 d7 61 00 	mov    %eax,0x61d7d4
  4045a1:	81 3c 25 d4 d7 61 00 	cmpl   $0x500,0x61d7d4
  4045a8:	00 05 00 00 
  4045ac:	0f 85 72 00 00 00    	jne    404624 <_ZN7jikoLib5GLLib6ShaderINS0_12VertexShaderENS0_11GLAllocatorINS0_12Alloc_ShaderEEEElsERKSs+0xe4>
  4045b2:	48 bf c0 d6 61 00 00 	movabs $0x61d6c0,%rdi
  4045b9:	00 00 00 
  4045bc:	48 be e2 8c 41 00 00 	movabs $0x418ce2,%rsi
  4045c3:	00 00 00 
  4045c6:	e8 95 dc ff ff       	callq  402260 <_ZStlsISt11char_traitsIcEERSt13basic_ostreamIcT_ES5_PKc@plt>
  4045cb:	48 be f2 8c 41 00 00 	movabs $0x418cf2,%rsi
  4045d2:	00 00 00 
  4045d5:	48 89 c7             	mov    %rax,%rdi
  4045d8:	e8 83 dc ff ff       	callq  402260 <_ZStlsISt11char_traitsIcEERSt13basic_ostreamIcT_ES5_PKc@plt>
  4045dd:	48 be ad 8d 41 00 00 	movabs $0x418dad,%rsi
  4045e4:	00 00 00 
  4045e7:	48 89 c7             	mov    %rax,%rdi
  4045ea:	e8 71 dc ff ff       	callq  402260 <_ZStlsISt11char_traitsIcEERSt13basic_ostreamIcT_ES5_PKc@plt>
  4045ef:	48 be 93 8c 41 00 00 	movabs $0x418c93,%rsi
  4045f6:	00 00 00 
  4045f9:	48 89 c7             	mov    %rax,%rdi
  4045fc:	e8 5f dc ff ff       	callq  402260 <_ZStlsISt11char_traitsIcEERSt13basic_ostreamIcT_ES5_PKc@plt>
  404601:	be 7a 00 00 00       	mov    $0x7a,%esi
  404606:	48 89 c7             	mov    %rax,%rdi
  404609:	e8 b2 dd ff ff       	callq  4023c0 <_ZNSolsEi@plt>
  40460e:	48 be 80 21 40 00 00 	movabs $0x402180,%rsi
  404615:	00 00 00 
  404618:	48 89 c7             	mov    %rax,%rdi
  40461b:	e8 80 dc ff ff       	callq  4022a0 <_ZNSolsEPFRSoS_E@plt>
  404620:	48 89 45 c0          	mov    %rax,-0x40(%rbp)
  404624:	81 3c 25 d4 d7 61 00 	cmpl   $0x501,0x61d7d4
  40462b:	01 05 00 00 
  40462f:	0f 85 72 00 00 00    	jne    4046a7 <_ZN7jikoLib5GLLib6ShaderINS0_12VertexShaderENS0_11GLAllocatorINS0_12Alloc_ShaderEEEElsERKSs+0x167>
  404635:	48 bf c0 d6 61 00 00 	movabs $0x61d6c0,%rdi
  40463c:	00 00 00 
  40463f:	48 be 04 8d 41 00 00 	movabs $0x418d04,%rsi
  404646:	00 00 00 
  404649:	e8 12 dc ff ff       	callq  402260 <_ZStlsISt11char_traitsIcEERSt13basic_ostreamIcT_ES5_PKc@plt>
  40464e:	48 be f2 8c 41 00 00 	movabs $0x418cf2,%rsi
  404655:	00 00 00 
  404658:	48 89 c7             	mov    %rax,%rdi
  40465b:	e8 00 dc ff ff       	callq  402260 <_ZStlsISt11char_traitsIcEERSt13basic_ostreamIcT_ES5_PKc@plt>
  404660:	48 be ad 8d 41 00 00 	movabs $0x418dad,%rsi
  404667:	00 00 00 
  40466a:	48 89 c7             	mov    %rax,%rdi
  40466d:	e8 ee db ff ff       	callq  402260 <_ZStlsISt11char_traitsIcEERSt13basic_ostreamIcT_ES5_PKc@plt>
  404672:	48 be 93 8c 41 00 00 	movabs $0x418c93,%rsi
  404679:	00 00 00 
  40467c:	48 89 c7             	mov    %rax,%rdi
  40467f:	e8 dc db ff ff       	callq  402260 <_ZStlsISt11char_traitsIcEERSt13basic_ostreamIcT_ES5_PKc@plt>
  404684:	be 7a 00 00 00       	mov    $0x7a,%esi
  404689:	48 89 c7             	mov    %rax,%rdi
  40468c:	e8 2f dd ff ff       	callq  4023c0 <_ZNSolsEi@plt>
  404691:	48 be 80 21 40 00 00 	movabs $0x402180,%rsi
  404698:	00 00 00 
  40469b:	48 89 c7             	mov    %rax,%rdi
  40469e:	e8 fd db ff ff       	callq  4022a0 <_ZNSolsEPFRSoS_E@plt>
  4046a3:	48 89 45 b8          	mov    %rax,-0x48(%rbp)
  4046a7:	81 3c 25 d4 d7 61 00 	cmpl   $0x502,0x61d7d4
  4046ae:	02 05 00 00 
  4046b2:	0f 85 72 00 00 00    	jne    40472a <_ZN7jikoLib5GLLib6ShaderINS0_12VertexShaderENS0_11GLAllocatorINS0_12Alloc_ShaderEEEElsERKSs+0x1ea>
  4046b8:	48 bf c0 d6 61 00 00 	movabs $0x61d6c0,%rdi
  4046bf:	00 00 00 
  4046c2:	48 be 15 8d 41 00 00 	movabs $0x418d15,%rsi
  4046c9:	00 00 00 
  4046cc:	e8 8f db ff ff       	callq  402260 <_ZStlsISt11char_traitsIcEERSt13basic_ostreamIcT_ES5_PKc@plt>
  4046d1:	48 be f2 8c 41 00 00 	movabs $0x418cf2,%rsi
  4046d8:	00 00 00 
  4046db:	48 89 c7             	mov    %rax,%rdi
  4046de:	e8 7d db ff ff       	callq  402260 <_ZStlsISt11char_traitsIcEERSt13basic_ostreamIcT_ES5_PKc@plt>
  4046e3:	48 be ad 8d 41 00 00 	movabs $0x418dad,%rsi
  4046ea:	00 00 00 
  4046ed:	48 89 c7             	mov    %rax,%rdi
  4046f0:	e8 6b db ff ff       	callq  402260 <_ZStlsISt11char_traitsIcEERSt13basic_ostreamIcT_ES5_PKc@plt>
  4046f5:	48 be 93 8c 41 00 00 	movabs $0x418c93,%rsi
  4046fc:	00 00 00 
  4046ff:	48 89 c7             	mov    %rax,%rdi
  404702:	e8 59 db ff ff       	callq  402260 <_ZStlsISt11char_traitsIcEERSt13basic_ostreamIcT_ES5_PKc@plt>
  404707:	be 7a 00 00 00       	mov    $0x7a,%esi
  40470c:	48 89 c7             	mov    %rax,%rdi
  40470f:	e8 ac dc ff ff       	callq  4023c0 <_ZNSolsEi@plt>
  404714:	48 be 80 21 40 00 00 	movabs $0x402180,%rsi
  40471b:	00 00 00 
  40471e:	48 89 c7             	mov    %rax,%rdi
  404721:	e8 7a db ff ff       	callq  4022a0 <_ZNSolsEPFRSoS_E@plt>
  404726:	48 89 45 b0          	mov    %rax,-0x50(%rbp)
  40472a:	81 3c 25 d4 d7 61 00 	cmpl   $0x503,0x61d7d4
  404731:	03 05 00 00 
  404735:	0f 85 72 00 00 00    	jne    4047ad <_ZN7jikoLib5GLLib6ShaderINS0_12VertexShaderENS0_11GLAllocatorINS0_12Alloc_ShaderEEEElsERKSs+0x26d>
  40473b:	48 bf c0 d6 61 00 00 	movabs $0x61d6c0,%rdi
  404742:	00 00 00 
  404745:	48 be 2a 8d 41 00 00 	movabs $0x418d2a,%rsi
  40474c:	00 00 00 
  40474f:	e8 0c db ff ff       	callq  402260 <_ZStlsISt11char_traitsIcEERSt13basic_ostreamIcT_ES5_PKc@plt>
  404754:	48 be f2 8c 41 00 00 	movabs $0x418cf2,%rsi
  40475b:	00 00 00 
  40475e:	48 89 c7             	mov    %rax,%rdi
  404761:	e8 fa da ff ff       	callq  402260 <_ZStlsISt11char_traitsIcEERSt13basic_ostreamIcT_ES5_PKc@plt>
  404766:	48 be ad 8d 41 00 00 	movabs $0x418dad,%rsi
  40476d:	00 00 00 
  404770:	48 89 c7             	mov    %rax,%rdi
  404773:	e8 e8 da ff ff       	callq  402260 <_ZStlsISt11char_traitsIcEERSt13basic_ostreamIcT_ES5_PKc@plt>
  404778:	48 be 93 8c 41 00 00 	movabs $0x418c93,%rsi
  40477f:	00 00 00 
  404782:	48 89 c7             	mov    %rax,%rdi
  404785:	e8 d6 da ff ff       	callq  402260 <_ZStlsISt11char_traitsIcEERSt13basic_ostreamIcT_ES5_PKc@plt>
  40478a:	be 7a 00 00 00       	mov    $0x7a,%esi
  40478f:	48 89 c7             	mov    %rax,%rdi
  404792:	e8 29 dc ff ff       	callq  4023c0 <_ZNSolsEi@plt>
  404797:	48 be 80 21 40 00 00 	movabs $0x402180,%rsi
  40479e:	00 00 00 
  4047a1:	48 89 c7             	mov    %rax,%rdi
  4047a4:	e8 f7 da ff ff       	callq  4022a0 <_ZNSolsEPFRSoS_E@plt>
  4047a9:	48 89 45 a8          	mov    %rax,-0x58(%rbp)
  4047ad:	81 3c 25 d4 d7 61 00 	cmpl   $0x504,0x61d7d4
  4047b4:	04 05 00 00 
  4047b8:	0f 85 72 00 00 00    	jne    404830 <_ZN7jikoLib5GLLib6ShaderINS0_12VertexShaderENS0_11GLAllocatorINS0_12Alloc_ShaderEEEElsERKSs+0x2f0>
  4047be:	48 bf c0 d6 61 00 00 	movabs $0x61d6c0,%rdi
  4047c5:	00 00 00 
  4047c8:	48 be 3c 8d 41 00 00 	movabs $0x418d3c,%rsi
  4047cf:	00 00 00 
  4047d2:	e8 89 da ff ff       	callq  402260 <_ZStlsISt11char_traitsIcEERSt13basic_ostreamIcT_ES5_PKc@plt>
  4047d7:	48 be f2 8c 41 00 00 	movabs $0x418cf2,%rsi
  4047de:	00 00 00 
  4047e1:	48 89 c7             	mov    %rax,%rdi
  4047e4:	e8 77 da ff ff       	callq  402260 <_ZStlsISt11char_traitsIcEERSt13basic_ostreamIcT_ES5_PKc@plt>
  4047e9:	48 be ad 8d 41 00 00 	movabs $0x418dad,%rsi
  4047f0:	00 00 00 
  4047f3:	48 89 c7             	mov    %rax,%rdi
  4047f6:	e8 65 da ff ff       	callq  402260 <_ZStlsISt11char_traitsIcEERSt13basic_ostreamIcT_ES5_PKc@plt>
  4047fb:	48 be 93 8c 41 00 00 	movabs $0x418c93,%rsi
  404802:	00 00 00 
  404805:	48 89 c7             	mov    %rax,%rdi
  404808:	e8 53 da ff ff       	callq  402260 <_ZStlsISt11char_traitsIcEERSt13basic_ostreamIcT_ES5_PKc@plt>
  40480d:	be 7a 00 00 00       	mov    $0x7a,%esi
  404812:	48 89 c7             	mov    %rax,%rdi
  404815:	e8 a6 db ff ff       	callq  4023c0 <_ZNSolsEi@plt>
  40481a:	48 be 80 21 40 00 00 	movabs $0x402180,%rsi
  404821:	00 00 00 
  404824:	48 89 c7             	mov    %rax,%rdi
  404827:	e8 74 da ff ff       	callq  4022a0 <_ZNSolsEPFRSoS_E@plt>
  40482c:	48 89 45 a0          	mov    %rax,-0x60(%rbp)
  404830:	81 3c 25 d4 d7 61 00 	cmpl   $0x505,0x61d7d4
  404837:	05 05 00 00 
  40483b:	0f 85 72 00 00 00    	jne    4048b3 <_ZN7jikoLib5GLLib6ShaderINS0_12VertexShaderENS0_11GLAllocatorINS0_12Alloc_ShaderEEEElsERKSs+0x373>
  404841:	48 bf c0 d6 61 00 00 	movabs $0x61d6c0,%rdi
  404848:	00 00 00 
  40484b:	48 be 4f 8d 41 00 00 	movabs $0x418d4f,%rsi
  404852:	00 00 00 
  404855:	e8 06 da ff ff       	callq  402260 <_ZStlsISt11char_traitsIcEERSt13basic_ostreamIcT_ES5_PKc@plt>
  40485a:	48 be f2 8c 41 00 00 	movabs $0x418cf2,%rsi
  404861:	00 00 00 
  404864:	48 89 c7             	mov    %rax,%rdi
  404867:	e8 f4 d9 ff ff       	callq  402260 <_ZStlsISt11char_traitsIcEERSt13basic_ostreamIcT_ES5_PKc@plt>
  40486c:	48 be ad 8d 41 00 00 	movabs $0x418dad,%rsi
  404873:	00 00 00 
  404876:	48 89 c7             	mov    %rax,%rdi
  404879:	e8 e2 d9 ff ff       	callq  402260 <_ZStlsISt11char_traitsIcEERSt13basic_ostreamIcT_ES5_PKc@plt>
  40487e:	48 be 93 8c 41 00 00 	movabs $0x418c93,%rsi
  404885:	00 00 00 
  404888:	48 89 c7             	mov    %rax,%rdi
  40488b:	e8 d0 d9 ff ff       	callq  402260 <_ZStlsISt11char_traitsIcEERSt13basic_ostreamIcT_ES5_PKc@plt>
  404890:	be 7a 00 00 00       	mov    $0x7a,%esi
  404895:	48 89 c7             	mov    %rax,%rdi
  404898:	e8 23 db ff ff       	callq  4023c0 <_ZNSolsEi@plt>
  40489d:	48 be 80 21 40 00 00 	movabs $0x402180,%rsi
  4048a4:	00 00 00 
  4048a7:	48 89 c7             	mov    %rax,%rdi
  4048aa:	e8 f1 d9 ff ff       	callq  4022a0 <_ZNSolsEPFRSoS_E@plt>
  4048af:	48 89 45 98          	mov    %rax,-0x68(%rbp)
  4048b3:	81 3c 25 d4 d7 61 00 	cmpl   $0x8031,0x61d7d4
  4048ba:	31 80 00 00 
  4048be:	0f 85 72 00 00 00    	jne    404936 <_ZN7jikoLib5GLLib6ShaderINS0_12VertexShaderENS0_11GLAllocatorINS0_12Alloc_ShaderEEEElsERKSs+0x3f6>
  4048c4:	48 bf c0 d6 61 00 00 	movabs $0x61d6c0,%rdi
  4048cb:	00 00 00 
  4048ce:	48 be 60 8d 41 00 00 	movabs $0x418d60,%rsi
  4048d5:	00 00 00 
  4048d8:	e8 83 d9 ff ff       	callq  402260 <_ZStlsISt11char_traitsIcEERSt13basic_ostreamIcT_ES5_PKc@plt>
  4048dd:	48 be f2 8c 41 00 00 	movabs $0x418cf2,%rsi
  4048e4:	00 00 00 
  4048e7:	48 89 c7             	mov    %rax,%rdi
  4048ea:	e8 71 d9 ff ff       	callq  402260 <_ZStlsISt11char_traitsIcEERSt13basic_ostreamIcT_ES5_PKc@plt>
  4048ef:	48 be ad 8d 41 00 00 	movabs $0x418dad,%rsi
  4048f6:	00 00 00 
  4048f9:	48 89 c7             	mov    %rax,%rdi
  4048fc:	e8 5f d9 ff ff       	callq  402260 <_ZStlsISt11char_traitsIcEERSt13basic_ostreamIcT_ES5_PKc@plt>
  404901:	48 be 93 8c 41 00 00 	movabs $0x418c93,%rsi
  404908:	00 00 00 
  40490b:	48 89 c7             	mov    %rax,%rdi
  40490e:	e8 4d d9 ff ff       	callq  402260 <_ZStlsISt11char_traitsIcEERSt13basic_ostreamIcT_ES5_PKc@plt>
  404913:	be 7a 00 00 00       	mov    $0x7a,%esi
  404918:	48 89 c7             	mov    %rax,%rdi
  40491b:	e8 a0 da ff ff       	callq  4023c0 <_ZNSolsEi@plt>
  404920:	48 be 80 21 40 00 00 	movabs $0x402180,%rsi
  404927:	00 00 00 
  40492a:	48 89 c7             	mov    %rax,%rdi
  40492d:	e8 6e d9 ff ff       	callq  4022a0 <_ZNSolsEPFRSoS_E@plt>
  404932:	48 89 45 90          	mov    %rax,-0x70(%rbp)
  404936:	48 8b 04 25 e0 d4 61 	mov    0x61d4e0,%rax
  40493d:	00 
  40493e:	48 8b 4d c8          	mov    -0x38(%rbp),%rcx
  404942:	8b 39                	mov    (%rcx),%edi
  404944:	ff d0                	callq  *%rax
  404946:	e8 45 d8 ff ff       	callq  402190 <glGetError@plt>
  40494b:	89 04 25 d4 d7 61 00 	mov    %eax,0x61d7d4
  404952:	81 3c 25 d4 d7 61 00 	cmpl   $0x500,0x61d7d4
  404959:	00 05 00 00 
  40495d:	0f 85 72 00 00 00    	jne    4049d5 <_ZN7jikoLib5GLLib6ShaderINS0_12VertexShaderENS0_11GLAllocatorINS0_12Alloc_ShaderEEEElsERKSs+0x495>
  404963:	48 bf c0 d6 61 00 00 	movabs $0x61d6c0,%rdi
  40496a:	00 00 00 
  40496d:	48 be e2 8c 41 00 00 	movabs $0x418ce2,%rsi
  404974:	00 00 00 
  404977:	e8 e4 d8 ff ff       	callq  402260 <_ZStlsISt11char_traitsIcEERSt13basic_ostreamIcT_ES5_PKc@plt>
  40497c:	48 be f2 8c 41 00 00 	movabs $0x418cf2,%rsi
  404983:	00 00 00 
  404986:	48 89 c7             	mov    %rax,%rdi
  404989:	e8 d2 d8 ff ff       	callq  402260 <_ZStlsISt11char_traitsIcEERSt13basic_ostreamIcT_ES5_PKc@plt>
  40498e:	48 be ad 8d 41 00 00 	movabs $0x418dad,%rsi
  404995:	00 00 00 
  404998:	48 89 c7             	mov    %rax,%rdi
  40499b:	e8 c0 d8 ff ff       	callq  402260 <_ZStlsISt11char_traitsIcEERSt13basic_ostreamIcT_ES5_PKc@plt>
  4049a0:	48 be 93 8c 41 00 00 	movabs $0x418c93,%rsi
  4049a7:	00 00 00 
  4049aa:	48 89 c7             	mov    %rax,%rdi
  4049ad:	e8 ae d8 ff ff       	callq  402260 <_ZStlsISt11char_traitsIcEERSt13basic_ostreamIcT_ES5_PKc@plt>
  4049b2:	be 7c 00 00 00       	mov    $0x7c,%esi
  4049b7:	48 89 c7             	mov    %rax,%rdi
  4049ba:	e8 01 da ff ff       	callq  4023c0 <_ZNSolsEi@plt>
  4049bf:	48 be 80 21 40 00 00 	movabs $0x402180,%rsi
  4049c6:	00 00 00 
  4049c9:	48 89 c7             	mov    %rax,%rdi
  4049cc:	e8 cf d8 ff ff       	callq  4022a0 <_ZNSolsEPFRSoS_E@plt>
  4049d1:	48 89 45 88          	mov    %rax,-0x78(%rbp)
  4049d5:	81 3c 25 d4 d7 61 00 	cmpl   $0x501,0x61d7d4
  4049dc:	01 05 00 00 
  4049e0:	0f 85 72 00 00 00    	jne    404a58 <_ZN7jikoLib5GLLib6ShaderINS0_12VertexShaderENS0_11GLAllocatorINS0_12Alloc_ShaderEEEElsERKSs+0x518>
  4049e6:	48 bf c0 d6 61 00 00 	movabs $0x61d6c0,%rdi
  4049ed:	00 00 00 
  4049f0:	48 be 04 8d 41 00 00 	movabs $0x418d04,%rsi
  4049f7:	00 00 00 
  4049fa:	e8 61 d8 ff ff       	callq  402260 <_ZStlsISt11char_traitsIcEERSt13basic_ostreamIcT_ES5_PKc@plt>
  4049ff:	48 be f2 8c 41 00 00 	movabs $0x418cf2,%rsi
  404a06:	00 00 00 
  404a09:	48 89 c7             	mov    %rax,%rdi
  404a0c:	e8 4f d8 ff ff       	callq  402260 <_ZStlsISt11char_traitsIcEERSt13basic_ostreamIcT_ES5_PKc@plt>
  404a11:	48 be ad 8d 41 00 00 	movabs $0x418dad,%rsi
  404a18:	00 00 00 
  404a1b:	48 89 c7             	mov    %rax,%rdi
  404a1e:	e8 3d d8 ff ff       	callq  402260 <_ZStlsISt11char_traitsIcEERSt13basic_ostreamIcT_ES5_PKc@plt>
  404a23:	48 be 93 8c 41 00 00 	movabs $0x418c93,%rsi
  404a2a:	00 00 00 
  404a2d:	48 89 c7             	mov    %rax,%rdi
  404a30:	e8 2b d8 ff ff       	callq  402260 <_ZStlsISt11char_traitsIcEERSt13basic_ostreamIcT_ES5_PKc@plt>
  404a35:	be 7c 00 00 00       	mov    $0x7c,%esi
  404a3a:	48 89 c7             	mov    %rax,%rdi
  404a3d:	e8 7e d9 ff ff       	callq  4023c0 <_ZNSolsEi@plt>
  404a42:	48 be 80 21 40 00 00 	movabs $0x402180,%rsi
  404a49:	00 00 00 
  404a4c:	48 89 c7             	mov    %rax,%rdi
  404a4f:	e8 4c d8 ff ff       	callq  4022a0 <_ZNSolsEPFRSoS_E@plt>
  404a54:	48 89 45 80          	mov    %rax,-0x80(%rbp)
  404a58:	81 3c 25 d4 d7 61 00 	cmpl   $0x502,0x61d7d4
  404a5f:	02 05 00 00 
  404a63:	0f 85 75 00 00 00    	jne    404ade <_ZN7jikoLib5GLLib6ShaderINS0_12VertexShaderENS0_11GLAllocatorINS0_12Alloc_ShaderEEEElsERKSs+0x59e>
  404a69:	48 bf c0 d6 61 00 00 	movabs $0x61d6c0,%rdi
  404a70:	00 00 00 
  404a73:	48 be 15 8d 41 00 00 	movabs $0x418d15,%rsi
  404a7a:	00 00 00 
  404a7d:	e8 de d7 ff ff       	callq  402260 <_ZStlsISt11char_traitsIcEERSt13basic_ostreamIcT_ES5_PKc@plt>
  404a82:	48 be f2 8c 41 00 00 	movabs $0x418cf2,%rsi
  404a89:	00 00 00 
  404a8c:	48 89 c7             	mov    %rax,%rdi
  404a8f:	e8 cc d7 ff ff       	callq  402260 <_ZStlsISt11char_traitsIcEERSt13basic_ostreamIcT_ES5_PKc@plt>
  404a94:	48 be ad 8d 41 00 00 	movabs $0x418dad,%rsi
  404a9b:	00 00 00 
  404a9e:	48 89 c7             	mov    %rax,%rdi
  404aa1:	e8 ba d7 ff ff       	callq  402260 <_ZStlsISt11char_traitsIcEERSt13basic_ostreamIcT_ES5_PKc@plt>
  404aa6:	48 be 93 8c 41 00 00 	movabs $0x418c93,%rsi
  404aad:	00 00 00 
  404ab0:	48 89 c7             	mov    %rax,%rdi
  404ab3:	e8 a8 d7 ff ff       	callq  402260 <_ZStlsISt11char_traitsIcEERSt13basic_ostreamIcT_ES5_PKc@plt>
  404ab8:	be 7c 00 00 00       	mov    $0x7c,%esi
  404abd:	48 89 c7             	mov    %rax,%rdi
  404ac0:	e8 fb d8 ff ff       	callq  4023c0 <_ZNSolsEi@plt>
  404ac5:	48 be 80 21 40 00 00 	movabs $0x402180,%rsi
  404acc:	00 00 00 
  404acf:	48 89 c7             	mov    %rax,%rdi
  404ad2:	e8 c9 d7 ff ff       	callq  4022a0 <_ZNSolsEPFRSoS_E@plt>
  404ad7:	48 89 85 78 ff ff ff 	mov    %rax,-0x88(%rbp)
  404ade:	81 3c 25 d4 d7 61 00 	cmpl   $0x503,0x61d7d4
  404ae5:	03 05 00 00 
  404ae9:	0f 85 75 00 00 00    	jne    404b64 <_ZN7jikoLib5GLLib6ShaderINS0_12VertexShaderENS0_11GLAllocatorINS0_12Alloc_ShaderEEEElsERKSs+0x624>
  404aef:	48 bf c0 d6 61 00 00 	movabs $0x61d6c0,%rdi
  404af6:	00 00 00 
  404af9:	48 be 2a 8d 41 00 00 	movabs $0x418d2a,%rsi
  404b00:	00 00 00 
  404b03:	e8 58 d7 ff ff       	callq  402260 <_ZStlsISt11char_traitsIcEERSt13basic_ostreamIcT_ES5_PKc@plt>
  404b08:	48 be f2 8c 41 00 00 	movabs $0x418cf2,%rsi
  404b0f:	00 00 00 
  404b12:	48 89 c7             	mov    %rax,%rdi
  404b15:	e8 46 d7 ff ff       	callq  402260 <_ZStlsISt11char_traitsIcEERSt13basic_ostreamIcT_ES5_PKc@plt>
  404b1a:	48 be ad 8d 41 00 00 	movabs $0x418dad,%rsi
  404b21:	00 00 00 
  404b24:	48 89 c7             	mov    %rax,%rdi
  404b27:	e8 34 d7 ff ff       	callq  402260 <_ZStlsISt11char_traitsIcEERSt13basic_ostreamIcT_ES5_PKc@plt>
  404b2c:	48 be 93 8c 41 00 00 	movabs $0x418c93,%rsi
  404b33:	00 00 00 
  404b36:	48 89 c7             	mov    %rax,%rdi
  404b39:	e8 22 d7 ff ff       	callq  402260 <_ZStlsISt11char_traitsIcEERSt13basic_ostreamIcT_ES5_PKc@plt>
  404b3e:	be 7c 00 00 00       	mov    $0x7c,%esi
  404b43:	48 89 c7             	mov    %rax,%rdi
  404b46:	e8 75 d8 ff ff       	callq  4023c0 <_ZNSolsEi@plt>
  404b4b:	48 be 80 21 40 00 00 	movabs $0x402180,%rsi
  404b52:	00 00 00 
  404b55:	48 89 c7             	mov    %rax,%rdi
  404b58:	e8 43 d7 ff ff       	callq  4022a0 <_ZNSolsEPFRSoS_E@plt>
  404b5d:	48 89 85 70 ff ff ff 	mov    %rax,-0x90(%rbp)
  404b64:	81 3c 25 d4 d7 61 00 	cmpl   $0x504,0x61d7d4
  404b6b:	04 05 00 00 
  404b6f:	0f 85 75 00 00 00    	jne    404bea <_ZN7jikoLib5GLLib6ShaderINS0_12VertexShaderENS0_11GLAllocatorINS0_12Alloc_ShaderEEEElsERKSs+0x6aa>
  404b75:	48 bf c0 d6 61 00 00 	movabs $0x61d6c0,%rdi
  404b7c:	00 00 00 
  404b7f:	48 be 3c 8d 41 00 00 	movabs $0x418d3c,%rsi
  404b86:	00 00 00 
  404b89:	e8 d2 d6 ff ff       	callq  402260 <_ZStlsISt11char_traitsIcEERSt13basic_ostreamIcT_ES5_PKc@plt>
  404b8e:	48 be f2 8c 41 00 00 	movabs $0x418cf2,%rsi
  404b95:	00 00 00 
  404b98:	48 89 c7             	mov    %rax,%rdi
  404b9b:	e8 c0 d6 ff ff       	callq  402260 <_ZStlsISt11char_traitsIcEERSt13basic_ostreamIcT_ES5_PKc@plt>
  404ba0:	48 be ad 8d 41 00 00 	movabs $0x418dad,%rsi
  404ba7:	00 00 00 
  404baa:	48 89 c7             	mov    %rax,%rdi
  404bad:	e8 ae d6 ff ff       	callq  402260 <_ZStlsISt11char_traitsIcEERSt13basic_ostreamIcT_ES5_PKc@plt>
  404bb2:	48 be 93 8c 41 00 00 	movabs $0x418c93,%rsi
  404bb9:	00 00 00 
  404bbc:	48 89 c7             	mov    %rax,%rdi
  404bbf:	e8 9c d6 ff ff       	callq  402260 <_ZStlsISt11char_traitsIcEERSt13basic_ostreamIcT_ES5_PKc@plt>
  404bc4:	be 7c 00 00 00       	mov    $0x7c,%esi
  404bc9:	48 89 c7             	mov    %rax,%rdi
  404bcc:	e8 ef d7 ff ff       	callq  4023c0 <_ZNSolsEi@plt>
  404bd1:	48 be 80 21 40 00 00 	movabs $0x402180,%rsi
  404bd8:	00 00 00 
  404bdb:	48 89 c7             	mov    %rax,%rdi
  404bde:	e8 bd d6 ff ff       	callq  4022a0 <_ZNSolsEPFRSoS_E@plt>
  404be3:	48 89 85 68 ff ff ff 	mov    %rax,-0x98(%rbp)
  404bea:	81 3c 25 d4 d7 61 00 	cmpl   $0x505,0x61d7d4
  404bf1:	05 05 00 00 
  404bf5:	0f 85 75 00 00 00    	jne    404c70 <_ZN7jikoLib5GLLib6ShaderINS0_12VertexShaderENS0_11GLAllocatorINS0_12Alloc_ShaderEEEElsERKSs+0x730>
  404bfb:	48 bf c0 d6 61 00 00 	movabs $0x61d6c0,%rdi
  404c02:	00 00 00 
  404c05:	48 be 4f 8d 41 00 00 	movabs $0x418d4f,%rsi
  404c0c:	00 00 00 
  404c0f:	e8 4c d6 ff ff       	callq  402260 <_ZStlsISt11char_traitsIcEERSt13basic_ostreamIcT_ES5_PKc@plt>
  404c14:	48 be f2 8c 41 00 00 	movabs $0x418cf2,%rsi
  404c1b:	00 00 00 
  404c1e:	48 89 c7             	mov    %rax,%rdi
  404c21:	e8 3a d6 ff ff       	callq  402260 <_ZStlsISt11char_traitsIcEERSt13basic_ostreamIcT_ES5_PKc@plt>
  404c26:	48 be ad 8d 41 00 00 	movabs $0x418dad,%rsi
  404c2d:	00 00 00 
  404c30:	48 89 c7             	mov    %rax,%rdi
  404c33:	e8 28 d6 ff ff       	callq  402260 <_ZStlsISt11char_traitsIcEERSt13basic_ostreamIcT_ES5_PKc@plt>
  404c38:	48 be 93 8c 41 00 00 	movabs $0x418c93,%rsi
  404c3f:	00 00 00 
  404c42:	48 89 c7             	mov    %rax,%rdi
  404c45:	e8 16 d6 ff ff       	callq  402260 <_ZStlsISt11char_traitsIcEERSt13basic_ostreamIcT_ES5_PKc@plt>
  404c4a:	be 7c 00 00 00       	mov    $0x7c,%esi
  404c4f:	48 89 c7             	mov    %rax,%rdi
  404c52:	e8 69 d7 ff ff       	callq  4023c0 <_ZNSolsEi@plt>
  404c57:	48 be 80 21 40 00 00 	movabs $0x402180,%rsi
  404c5e:	00 00 00 
  404c61:	48 89 c7             	mov    %rax,%rdi
  404c64:	e8 37 d6 ff ff       	callq  4022a0 <_ZNSolsEPFRSoS_E@plt>
  404c69:	48 89 85 60 ff ff ff 	mov    %rax,-0xa0(%rbp)
  404c70:	81 3c 25 d4 d7 61 00 	cmpl   $0x8031,0x61d7d4
  404c77:	31 80 00 00 
  404c7b:	0f 85 75 00 00 00    	jne    404cf6 <_ZN7jikoLib5GLLib6ShaderINS0_12VertexShaderENS0_11GLAllocatorINS0_12Alloc_ShaderEEEElsERKSs+0x7b6>
  404c81:	48 bf c0 d6 61 00 00 	movabs $0x61d6c0,%rdi
  404c88:	00 00 00 
  404c8b:	48 be 60 8d 41 00 00 	movabs $0x418d60,%rsi
  404c92:	00 00 00 
  404c95:	e8 c6 d5 ff ff       	callq  402260 <_ZStlsISt11char_traitsIcEERSt13basic_ostreamIcT_ES5_PKc@plt>
  404c9a:	48 be f2 8c 41 00 00 	movabs $0x418cf2,%rsi
  404ca1:	00 00 00 
  404ca4:	48 89 c7             	mov    %rax,%rdi
  404ca7:	e8 b4 d5 ff ff       	callq  402260 <_ZStlsISt11char_traitsIcEERSt13basic_ostreamIcT_ES5_PKc@plt>
  404cac:	48 be ad 8d 41 00 00 	movabs $0x418dad,%rsi
  404cb3:	00 00 00 
  404cb6:	48 89 c7             	mov    %rax,%rdi
  404cb9:	e8 a2 d5 ff ff       	callq  402260 <_ZStlsISt11char_traitsIcEERSt13basic_ostreamIcT_ES5_PKc@plt>
  404cbe:	48 be 93 8c 41 00 00 	movabs $0x418c93,%rsi
  404cc5:	00 00 00 
  404cc8:	48 89 c7             	mov    %rax,%rdi
  404ccb:	e8 90 d5 ff ff       	callq  402260 <_ZStlsISt11char_traitsIcEERSt13basic_ostreamIcT_ES5_PKc@plt>
  404cd0:	be 7c 00 00 00       	mov    $0x7c,%esi
  404cd5:	48 89 c7             	mov    %rax,%rdi
  404cd8:	e8 e3 d6 ff ff       	callq  4023c0 <_ZNSolsEi@plt>
  404cdd:	48 be 80 21 40 00 00 	movabs $0x402180,%rsi
  404ce4:	00 00 00 
  404ce7:	48 89 c7             	mov    %rax,%rdi
  404cea:	e8 b1 d5 ff ff       	callq  4022a0 <_ZNSolsEPFRSoS_E@plt>
  404cef:	48 89 85 58 ff ff ff 	mov    %rax,-0xa8(%rbp)
  404cf6:	be 81 8b 00 00       	mov    $0x8b81,%esi
  404cfb:	48 8d 55 e0          	lea    -0x20(%rbp),%rdx
  404cff:	48 c7 45 d0 00 00 00 	movq   $0x0,-0x30(%rbp)
  404d06:	00 
  404d07:	48 8b 04 25 d8 d4 61 	mov    0x61d4d8,%rax
  404d0e:	00 
  404d0f:	48 8b 4d c8          	mov    -0x38(%rbp),%rcx
  404d13:	8b 39                	mov    (%rcx),%edi
  404d15:	ff d0                	callq  *%rax
  404d17:	e8 74 d4 ff ff       	callq  402190 <glGetError@plt>
  404d1c:	89 04 25 d4 d7 61 00 	mov    %eax,0x61d7d4
  404d23:	81 3c 25 d4 d7 61 00 	cmpl   $0x500,0x61d7d4
  404d2a:	00 05 00 00 
  404d2e:	0f 85 75 00 00 00    	jne    404da9 <_ZN7jikoLib5GLLib6ShaderINS0_12VertexShaderENS0_11GLAllocatorINS0_12Alloc_ShaderEEEElsERKSs+0x869>
  404d34:	48 bf c0 d6 61 00 00 	movabs $0x61d6c0,%rdi
  404d3b:	00 00 00 
  404d3e:	48 be e2 8c 41 00 00 	movabs $0x418ce2,%rsi
  404d45:	00 00 00 
  404d48:	e8 13 d5 ff ff       	callq  402260 <_ZStlsISt11char_traitsIcEERSt13basic_ostreamIcT_ES5_PKc@plt>
  404d4d:	48 be f2 8c 41 00 00 	movabs $0x418cf2,%rsi
  404d54:	00 00 00 
  404d57:	48 89 c7             	mov    %rax,%rdi
  404d5a:	e8 01 d5 ff ff       	callq  402260 <_ZStlsISt11char_traitsIcEERSt13basic_ostreamIcT_ES5_PKc@plt>
  404d5f:	48 be ad 8d 41 00 00 	movabs $0x418dad,%rsi
  404d66:	00 00 00 
  404d69:	48 89 c7             	mov    %rax,%rdi
  404d6c:	e8 ef d4 ff ff       	callq  402260 <_ZStlsISt11char_traitsIcEERSt13basic_ostreamIcT_ES5_PKc@plt>
  404d71:	48 be 93 8c 41 00 00 	movabs $0x418c93,%rsi
  404d78:	00 00 00 
  404d7b:	48 89 c7             	mov    %rax,%rdi
  404d7e:	e8 dd d4 ff ff       	callq  402260 <_ZStlsISt11char_traitsIcEERSt13basic_ostreamIcT_ES5_PKc@plt>
  404d83:	be 82 00 00 00       	mov    $0x82,%esi
  404d88:	48 89 c7             	mov    %rax,%rdi
  404d8b:	e8 30 d6 ff ff       	callq  4023c0 <_ZNSolsEi@plt>
  404d90:	48 be 80 21 40 00 00 	movabs $0x402180,%rsi
  404d97:	00 00 00 
  404d9a:	48 89 c7             	mov    %rax,%rdi
  404d9d:	e8 fe d4 ff ff       	callq  4022a0 <_ZNSolsEPFRSoS_E@plt>
  404da2:	48 89 85 50 ff ff ff 	mov    %rax,-0xb0(%rbp)
  404da9:	81 3c 25 d4 d7 61 00 	cmpl   $0x501,0x61d7d4
  404db0:	01 05 00 00 
  404db4:	0f 85 75 00 00 00    	jne    404e2f <_ZN7jikoLib5GLLib6ShaderINS0_12VertexShaderENS0_11GLAllocatorINS0_12Alloc_ShaderEEEElsERKSs+0x8ef>
  404dba:	48 bf c0 d6 61 00 00 	movabs $0x61d6c0,%rdi
  404dc1:	00 00 00 
  404dc4:	48 be 04 8d 41 00 00 	movabs $0x418d04,%rsi
  404dcb:	00 00 00 
  404dce:	e8 8d d4 ff ff       	callq  402260 <_ZStlsISt11char_traitsIcEERSt13basic_ostreamIcT_ES5_PKc@plt>
  404dd3:	48 be f2 8c 41 00 00 	movabs $0x418cf2,%rsi
  404dda:	00 00 00 
  404ddd:	48 89 c7             	mov    %rax,%rdi
  404de0:	e8 7b d4 ff ff       	callq  402260 <_ZStlsISt11char_traitsIcEERSt13basic_ostreamIcT_ES5_PKc@plt>
  404de5:	48 be ad 8d 41 00 00 	movabs $0x418dad,%rsi
  404dec:	00 00 00 
  404def:	48 89 c7             	mov    %rax,%rdi
  404df2:	e8 69 d4 ff ff       	callq  402260 <_ZStlsISt11char_traitsIcEERSt13basic_ostreamIcT_ES5_PKc@plt>
  404df7:	48 be 93 8c 41 00 00 	movabs $0x418c93,%rsi
  404dfe:	00 00 00 
  404e01:	48 89 c7             	mov    %rax,%rdi
  404e04:	e8 57 d4 ff ff       	callq  402260 <_ZStlsISt11char_traitsIcEERSt13basic_ostreamIcT_ES5_PKc@plt>
  404e09:	be 82 00 00 00       	mov    $0x82,%esi
  404e0e:	48 89 c7             	mov    %rax,%rdi
  404e11:	e8 aa d5 ff ff       	callq  4023c0 <_ZNSolsEi@plt>
  404e16:	48 be 80 21 40 00 00 	movabs $0x402180,%rsi
  404e1d:	00 00 00 
  404e20:	48 89 c7             	mov    %rax,%rdi
  404e23:	e8 78 d4 ff ff       	callq  4022a0 <_ZNSolsEPFRSoS_E@plt>
  404e28:	48 89 85 48 ff ff ff 	mov    %rax,-0xb8(%rbp)
  404e2f:	81 3c 25 d4 d7 61 00 	cmpl   $0x502,0x61d7d4
  404e36:	02 05 00 00 
  404e3a:	0f 85 75 00 00 00    	jne    404eb5 <_ZN7jikoLib5GLLib6ShaderINS0_12VertexShaderENS0_11GLAllocatorINS0_12Alloc_ShaderEEEElsERKSs+0x975>
  404e40:	48 bf c0 d6 61 00 00 	movabs $0x61d6c0,%rdi
  404e47:	00 00 00 
  404e4a:	48 be 15 8d 41 00 00 	movabs $0x418d15,%rsi
  404e51:	00 00 00 
  404e54:	e8 07 d4 ff ff       	callq  402260 <_ZStlsISt11char_traitsIcEERSt13basic_ostreamIcT_ES5_PKc@plt>
  404e59:	48 be f2 8c 41 00 00 	movabs $0x418cf2,%rsi
  404e60:	00 00 00 
  404e63:	48 89 c7             	mov    %rax,%rdi
  404e66:	e8 f5 d3 ff ff       	callq  402260 <_ZStlsISt11char_traitsIcEERSt13basic_ostreamIcT_ES5_PKc@plt>
  404e6b:	48 be ad 8d 41 00 00 	movabs $0x418dad,%rsi
  404e72:	00 00 00 
  404e75:	48 89 c7             	mov    %rax,%rdi
  404e78:	e8 e3 d3 ff ff       	callq  402260 <_ZStlsISt11char_traitsIcEERSt13basic_ostreamIcT_ES5_PKc@plt>
  404e7d:	48 be 93 8c 41 00 00 	movabs $0x418c93,%rsi
  404e84:	00 00 00 
  404e87:	48 89 c7             	mov    %rax,%rdi
  404e8a:	e8 d1 d3 ff ff       	callq  402260 <_ZStlsISt11char_traitsIcEERSt13basic_ostreamIcT_ES5_PKc@plt>
  404e8f:	be 82 00 00 00       	mov    $0x82,%esi
  404e94:	48 89 c7             	mov    %rax,%rdi
  404e97:	e8 24 d5 ff ff       	callq  4023c0 <_ZNSolsEi@plt>
  404e9c:	48 be 80 21 40 00 00 	movabs $0x402180,%rsi
  404ea3:	00 00 00 
  404ea6:	48 89 c7             	mov    %rax,%rdi
  404ea9:	e8 f2 d3 ff ff       	callq  4022a0 <_ZNSolsEPFRSoS_E@plt>
  404eae:	48 89 85 40 ff ff ff 	mov    %rax,-0xc0(%rbp)
  404eb5:	81 3c 25 d4 d7 61 00 	cmpl   $0x503,0x61d7d4
  404ebc:	03 05 00 00 
  404ec0:	0f 85 75 00 00 00    	jne    404f3b <_ZN7jikoLib5GLLib6ShaderINS0_12VertexShaderENS0_11GLAllocatorINS0_12Alloc_ShaderEEEElsERKSs+0x9fb>
  404ec6:	48 bf c0 d6 61 00 00 	movabs $0x61d6c0,%rdi
  404ecd:	00 00 00 
  404ed0:	48 be 2a 8d 41 00 00 	movabs $0x418d2a,%rsi
  404ed7:	00 00 00 
  404eda:	e8 81 d3 ff ff       	callq  402260 <_ZStlsISt11char_traitsIcEERSt13basic_ostreamIcT_ES5_PKc@plt>
  404edf:	48 be f2 8c 41 00 00 	movabs $0x418cf2,%rsi
  404ee6:	00 00 00 
  404ee9:	48 89 c7             	mov    %rax,%rdi
  404eec:	e8 6f d3 ff ff       	callq  402260 <_ZStlsISt11char_traitsIcEERSt13basic_ostreamIcT_ES5_PKc@plt>
  404ef1:	48 be ad 8d 41 00 00 	movabs $0x418dad,%rsi
  404ef8:	00 00 00 
  404efb:	48 89 c7             	mov    %rax,%rdi
  404efe:	e8 5d d3 ff ff       	callq  402260 <_ZStlsISt11char_traitsIcEERSt13basic_ostreamIcT_ES5_PKc@plt>
  404f03:	48 be 93 8c 41 00 00 	movabs $0x418c93,%rsi
  404f0a:	00 00 00 
  404f0d:	48 89 c7             	mov    %rax,%rdi
  404f10:	e8 4b d3 ff ff       	callq  402260 <_ZStlsISt11char_traitsIcEERSt13basic_ostreamIcT_ES5_PKc@plt>
  404f15:	be 82 00 00 00       	mov    $0x82,%esi
  404f1a:	48 89 c7             	mov    %rax,%rdi
  404f1d:	e8 9e d4 ff ff       	callq  4023c0 <_ZNSolsEi@plt>
  404f22:	48 be 80 21 40 00 00 	movabs $0x402180,%rsi
  404f29:	00 00 00 
  404f2c:	48 89 c7             	mov    %rax,%rdi
  404f2f:	e8 6c d3 ff ff       	callq  4022a0 <_ZNSolsEPFRSoS_E@plt>
  404f34:	48 89 85 38 ff ff ff 	mov    %rax,-0xc8(%rbp)
  404f3b:	81 3c 25 d4 d7 61 00 	cmpl   $0x504,0x61d7d4
  404f42:	04 05 00 00 
  404f46:	0f 85 75 00 00 00    	jne    404fc1 <_ZN7jikoLib5GLLib6ShaderINS0_12VertexShaderENS0_11GLAllocatorINS0_12Alloc_ShaderEEEElsERKSs+0xa81>
  404f4c:	48 bf c0 d6 61 00 00 	movabs $0x61d6c0,%rdi
  404f53:	00 00 00 
  404f56:	48 be 3c 8d 41 00 00 	movabs $0x418d3c,%rsi
  404f5d:	00 00 00 
  404f60:	e8 fb d2 ff ff       	callq  402260 <_ZStlsISt11char_traitsIcEERSt13basic_ostreamIcT_ES5_PKc@plt>
  404f65:	48 be f2 8c 41 00 00 	movabs $0x418cf2,%rsi
  404f6c:	00 00 00 
  404f6f:	48 89 c7             	mov    %rax,%rdi
  404f72:	e8 e9 d2 ff ff       	callq  402260 <_ZStlsISt11char_traitsIcEERSt13basic_ostreamIcT_ES5_PKc@plt>
  404f77:	48 be ad 8d 41 00 00 	movabs $0x418dad,%rsi
  404f7e:	00 00 00 
  404f81:	48 89 c7             	mov    %rax,%rdi
  404f84:	e8 d7 d2 ff ff       	callq  402260 <_ZStlsISt11char_traitsIcEERSt13basic_ostreamIcT_ES5_PKc@plt>
  404f89:	48 be 93 8c 41 00 00 	movabs $0x418c93,%rsi
  404f90:	00 00 00 
  404f93:	48 89 c7             	mov    %rax,%rdi
  404f96:	e8 c5 d2 ff ff       	callq  402260 <_ZStlsISt11char_traitsIcEERSt13basic_ostreamIcT_ES5_PKc@plt>
  404f9b:	be 82 00 00 00       	mov    $0x82,%esi
  404fa0:	48 89 c7             	mov    %rax,%rdi
  404fa3:	e8 18 d4 ff ff       	callq  4023c0 <_ZNSolsEi@plt>
  404fa8:	48 be 80 21 40 00 00 	movabs $0x402180,%rsi
  404faf:	00 00 00 
  404fb2:	48 89 c7             	mov    %rax,%rdi
  404fb5:	e8 e6 d2 ff ff       	callq  4022a0 <_ZNSolsEPFRSoS_E@plt>
  404fba:	48 89 85 30 ff ff ff 	mov    %rax,-0xd0(%rbp)
  404fc1:	81 3c 25 d4 d7 61 00 	cmpl   $0x505,0x61d7d4
  404fc8:	05 05 00 00 
  404fcc:	0f 85 75 00 00 00    	jne    405047 <_ZN7jikoLib5GLLib6ShaderINS0_12VertexShaderENS0_11GLAllocatorINS0_12Alloc_ShaderEEEElsERKSs+0xb07>
  404fd2:	48 bf c0 d6 61 00 00 	movabs $0x61d6c0,%rdi
  404fd9:	00 00 00 
  404fdc:	48 be 4f 8d 41 00 00 	movabs $0x418d4f,%rsi
  404fe3:	00 00 00 
  404fe6:	e8 75 d2 ff ff       	callq  402260 <_ZStlsISt11char_traitsIcEERSt13basic_ostreamIcT_ES5_PKc@plt>
  404feb:	48 be f2 8c 41 00 00 	movabs $0x418cf2,%rsi
  404ff2:	00 00 00 
  404ff5:	48 89 c7             	mov    %rax,%rdi
  404ff8:	e8 63 d2 ff ff       	callq  402260 <_ZStlsISt11char_traitsIcEERSt13basic_ostreamIcT_ES5_PKc@plt>
  404ffd:	48 be ad 8d 41 00 00 	movabs $0x418dad,%rsi
  405004:	00 00 00 
  405007:	48 89 c7             	mov    %rax,%rdi
  40500a:	e8 51 d2 ff ff       	callq  402260 <_ZStlsISt11char_traitsIcEERSt13basic_ostreamIcT_ES5_PKc@plt>
  40500f:	48 be 93 8c 41 00 00 	movabs $0x418c93,%rsi
  405016:	00 00 00 
  405019:	48 89 c7             	mov    %rax,%rdi
  40501c:	e8 3f d2 ff ff       	callq  402260 <_ZStlsISt11char_traitsIcEERSt13basic_ostreamIcT_ES5_PKc@plt>
  405021:	be 82 00 00 00       	mov    $0x82,%esi
  405026:	48 89 c7             	mov    %rax,%rdi
  405029:	e8 92 d3 ff ff       	callq  4023c0 <_ZNSolsEi@plt>
  40502e:	48 be 80 21 40 00 00 	movabs $0x402180,%rsi
  405035:	00 00 00 
  405038:	48 89 c7             	mov    %rax,%rdi
  40503b:	e8 60 d2 ff ff       	callq  4022a0 <_ZNSolsEPFRSoS_E@plt>
  405040:	48 89 85 28 ff ff ff 	mov    %rax,-0xd8(%rbp)
  405047:	81 3c 25 d4 d7 61 00 	cmpl   $0x8031,0x61d7d4
  40504e:	31 80 00 00 
  405052:	0f 85 75 00 00 00    	jne    4050cd <_ZN7jikoLib5GLLib6ShaderINS0_12VertexShaderENS0_11GLAllocatorINS0_12Alloc_ShaderEEEElsERKSs+0xb8d>
  405058:	48 bf c0 d6 61 00 00 	movabs $0x61d6c0,%rdi
  40505f:	00 00 00 
  405062:	48 be 60 8d 41 00 00 	movabs $0x418d60,%rsi
  405069:	00 00 00 
  40506c:	e8 ef d1 ff ff       	callq  402260 <_ZStlsISt11char_traitsIcEERSt13basic_ostreamIcT_ES5_PKc@plt>
  405071:	48 be f2 8c 41 00 00 	movabs $0x418cf2,%rsi
  405078:	00 00 00 
  40507b:	48 89 c7             	mov    %rax,%rdi
  40507e:	e8 dd d1 ff ff       	callq  402260 <_ZStlsISt11char_traitsIcEERSt13basic_ostreamIcT_ES5_PKc@plt>
  405083:	48 be ad 8d 41 00 00 	movabs $0x418dad,%rsi
  40508a:	00 00 00 
  40508d:	48 89 c7             	mov    %rax,%rdi
  405090:	e8 cb d1 ff ff       	callq  402260 <_ZStlsISt11char_traitsIcEERSt13basic_ostreamIcT_ES5_PKc@plt>
  405095:	48 be 93 8c 41 00 00 	movabs $0x418c93,%rsi
  40509c:	00 00 00 
  40509f:	48 89 c7             	mov    %rax,%rdi
  4050a2:	e8 b9 d1 ff ff       	callq  402260 <_ZStlsISt11char_traitsIcEERSt13basic_ostreamIcT_ES5_PKc@plt>
  4050a7:	be 82 00 00 00       	mov    $0x82,%esi
  4050ac:	48 89 c7             	mov    %rax,%rdi
  4050af:	e8 0c d3 ff ff       	callq  4023c0 <_ZNSolsEi@plt>
  4050b4:	48 be 80 21 40 00 00 	movabs $0x402180,%rsi
  4050bb:	00 00 00 
  4050be:	48 89 c7             	mov    %rax,%rdi
  4050c1:	e8 da d1 ff ff       	callq  4022a0 <_ZNSolsEPFRSoS_E@plt>
  4050c6:	48 89 85 20 ff ff ff 	mov    %rax,-0xe0(%rbp)
  4050cd:	81 7d e0 00 00 00 00 	cmpl   $0x0,-0x20(%rbp)
  4050d4:	0f 85 9f 08 00 00    	jne    405979 <_ZN7jikoLib5GLLib6ShaderINS0_12VertexShaderENS0_11GLAllocatorINS0_12Alloc_ShaderEEEElsERKSs+0x1439>
  4050da:	48 bf c0 d6 61 00 00 	movabs $0x61d6c0,%rdi
  4050e1:	00 00 00 
  4050e4:	48 be c1 8f 41 00 00 	movabs $0x418fc1,%rsi
  4050eb:	00 00 00 
  4050ee:	e8 6d d1 ff ff       	callq  402260 <_ZStlsISt11char_traitsIcEERSt13basic_ostreamIcT_ES5_PKc@plt>
  4050f3:	48 8b 75 c8          	mov    -0x38(%rbp),%rsi
  4050f7:	8b 36                	mov    (%rsi),%esi
  4050f9:	48 89 c7             	mov    %rax,%rdi
  4050fc:	e8 ef d1 ff ff       	callq  4022f0 <_ZNSolsEj@plt>
  405101:	48 be 92 8f 41 00 00 	movabs $0x418f92,%rsi
  405108:	00 00 00 
  40510b:	48 89 c7             	mov    %rax,%rdi
  40510e:	e8 4d d1 ff ff       	callq  402260 <_ZStlsISt11char_traitsIcEERSt13basic_ostreamIcT_ES5_PKc@plt>
  405113:	48 be 80 21 40 00 00 	movabs $0x402180,%rsi
  40511a:	00 00 00 
  40511d:	48 89 c7             	mov    %rax,%rdi
  405120:	e8 7b d1 ff ff       	callq  4022a0 <_ZNSolsEPFRSoS_E@plt>
  405125:	be 84 8b 00 00       	mov    $0x8b84,%esi
  40512a:	48 8d 55 dc          	lea    -0x24(%rbp),%rdx
  40512e:	48 8b 3c 25 d8 d4 61 	mov    0x61d4d8,%rdi
  405135:	00 
  405136:	48 8b 4d c8          	mov    -0x38(%rbp),%rcx
  40513a:	44 8b 01             	mov    (%rcx),%r8d
  40513d:	48 89 bd 18 ff ff ff 	mov    %rdi,-0xe8(%rbp)
  405144:	44 89 c7             	mov    %r8d,%edi
  405147:	4c 8b 8d 18 ff ff ff 	mov    -0xe8(%rbp),%r9
  40514e:	48 89 85 10 ff ff ff 	mov    %rax,-0xf0(%rbp)
  405155:	41 ff d1             	callq  *%r9
  405158:	e8 33 d0 ff ff       	callq  402190 <glGetError@plt>
  40515d:	89 04 25 d4 d7 61 00 	mov    %eax,0x61d7d4
  405164:	81 3c 25 d4 d7 61 00 	cmpl   $0x500,0x61d7d4
  40516b:	00 05 00 00 
  40516f:	0f 85 75 00 00 00    	jne    4051ea <_ZN7jikoLib5GLLib6ShaderINS0_12VertexShaderENS0_11GLAllocatorINS0_12Alloc_ShaderEEEElsERKSs+0xcaa>
  405175:	48 bf c0 d6 61 00 00 	movabs $0x61d6c0,%rdi
  40517c:	00 00 00 
  40517f:	48 be e2 8c 41 00 00 	movabs $0x418ce2,%rsi
  405186:	00 00 00 
  405189:	e8 d2 d0 ff ff       	callq  402260 <_ZStlsISt11char_traitsIcEERSt13basic_ostreamIcT_ES5_PKc@plt>
  40518e:	48 be f2 8c 41 00 00 	movabs $0x418cf2,%rsi
  405195:	00 00 00 
  405198:	48 89 c7             	mov    %rax,%rdi
  40519b:	e8 c0 d0 ff ff       	callq  402260 <_ZStlsISt11char_traitsIcEERSt13basic_ostreamIcT_ES5_PKc@plt>
  4051a0:	48 be ad 8d 41 00 00 	movabs $0x418dad,%rsi
  4051a7:	00 00 00 
  4051aa:	48 89 c7             	mov    %rax,%rdi
  4051ad:	e8 ae d0 ff ff       	callq  402260 <_ZStlsISt11char_traitsIcEERSt13basic_ostreamIcT_ES5_PKc@plt>
  4051b2:	48 be 93 8c 41 00 00 	movabs $0x418c93,%rsi
  4051b9:	00 00 00 
  4051bc:	48 89 c7             	mov    %rax,%rdi
  4051bf:	e8 9c d0 ff ff       	callq  402260 <_ZStlsISt11char_traitsIcEERSt13basic_ostreamIcT_ES5_PKc@plt>
  4051c4:	be 89 00 00 00       	mov    $0x89,%esi
  4051c9:	48 89 c7             	mov    %rax,%rdi
  4051cc:	e8 ef d1 ff ff       	callq  4023c0 <_ZNSolsEi@plt>
  4051d1:	48 be 80 21 40 00 00 	movabs $0x402180,%rsi
  4051d8:	00 00 00 
  4051db:	48 89 c7             	mov    %rax,%rdi
  4051de:	e8 bd d0 ff ff       	callq  4022a0 <_ZNSolsEPFRSoS_E@plt>
  4051e3:	48 89 85 08 ff ff ff 	mov    %rax,-0xf8(%rbp)
  4051ea:	81 3c 25 d4 d7 61 00 	cmpl   $0x501,0x61d7d4
  4051f1:	01 05 00 00 
  4051f5:	0f 85 75 00 00 00    	jne    405270 <_ZN7jikoLib5GLLib6ShaderINS0_12VertexShaderENS0_11GLAllocatorINS0_12Alloc_ShaderEEEElsERKSs+0xd30>
  4051fb:	48 bf c0 d6 61 00 00 	movabs $0x61d6c0,%rdi
  405202:	00 00 00 
  405205:	48 be 04 8d 41 00 00 	movabs $0x418d04,%rsi
  40520c:	00 00 00 
  40520f:	e8 4c d0 ff ff       	callq  402260 <_ZStlsISt11char_traitsIcEERSt13basic_ostreamIcT_ES5_PKc@plt>
  405214:	48 be f2 8c 41 00 00 	movabs $0x418cf2,%rsi
  40521b:	00 00 00 
  40521e:	48 89 c7             	mov    %rax,%rdi
  405221:	e8 3a d0 ff ff       	callq  402260 <_ZStlsISt11char_traitsIcEERSt13basic_ostreamIcT_ES5_PKc@plt>
  405226:	48 be ad 8d 41 00 00 	movabs $0x418dad,%rsi
  40522d:	00 00 00 
  405230:	48 89 c7             	mov    %rax,%rdi
  405233:	e8 28 d0 ff ff       	callq  402260 <_ZStlsISt11char_traitsIcEERSt13basic_ostreamIcT_ES5_PKc@plt>
  405238:	48 be 93 8c 41 00 00 	movabs $0x418c93,%rsi
  40523f:	00 00 00 
  405242:	48 89 c7             	mov    %rax,%rdi
  405245:	e8 16 d0 ff ff       	callq  402260 <_ZStlsISt11char_traitsIcEERSt13basic_ostreamIcT_ES5_PKc@plt>
  40524a:	be 89 00 00 00       	mov    $0x89,%esi
  40524f:	48 89 c7             	mov    %rax,%rdi
  405252:	e8 69 d1 ff ff       	callq  4023c0 <_ZNSolsEi@plt>
  405257:	48 be 80 21 40 00 00 	movabs $0x402180,%rsi
  40525e:	00 00 00 
  405261:	48 89 c7             	mov    %rax,%rdi
  405264:	e8 37 d0 ff ff       	callq  4022a0 <_ZNSolsEPFRSoS_E@plt>
  405269:	48 89 85 00 ff ff ff 	mov    %rax,-0x100(%rbp)
  405270:	81 3c 25 d4 d7 61 00 	cmpl   $0x502,0x61d7d4
  405277:	02 05 00 00 
  40527b:	0f 85 75 00 00 00    	jne    4052f6 <_ZN7jikoLib5GLLib6ShaderINS0_12VertexShaderENS0_11GLAllocatorINS0_12Alloc_ShaderEEEElsERKSs+0xdb6>
  405281:	48 bf c0 d6 61 00 00 	movabs $0x61d6c0,%rdi
  405288:	00 00 00 
  40528b:	48 be 15 8d 41 00 00 	movabs $0x418d15,%rsi
  405292:	00 00 00 
  405295:	e8 c6 cf ff ff       	callq  402260 <_ZStlsISt11char_traitsIcEERSt13basic_ostreamIcT_ES5_PKc@plt>
  40529a:	48 be f2 8c 41 00 00 	movabs $0x418cf2,%rsi
  4052a1:	00 00 00 
  4052a4:	48 89 c7             	mov    %rax,%rdi
  4052a7:	e8 b4 cf ff ff       	callq  402260 <_ZStlsISt11char_traitsIcEERSt13basic_ostreamIcT_ES5_PKc@plt>
  4052ac:	48 be ad 8d 41 00 00 	movabs $0x418dad,%rsi
  4052b3:	00 00 00 
  4052b6:	48 89 c7             	mov    %rax,%rdi
  4052b9:	e8 a2 cf ff ff       	callq  402260 <_ZStlsISt11char_traitsIcEERSt13basic_ostreamIcT_ES5_PKc@plt>
  4052be:	48 be 93 8c 41 00 00 	movabs $0x418c93,%rsi
  4052c5:	00 00 00 
  4052c8:	48 89 c7             	mov    %rax,%rdi
  4052cb:	e8 90 cf ff ff       	callq  402260 <_ZStlsISt11char_traitsIcEERSt13basic_ostreamIcT_ES5_PKc@plt>
  4052d0:	be 89 00 00 00       	mov    $0x89,%esi
  4052d5:	48 89 c7             	mov    %rax,%rdi
  4052d8:	e8 e3 d0 ff ff       	callq  4023c0 <_ZNSolsEi@plt>
  4052dd:	48 be 80 21 40 00 00 	movabs $0x402180,%rsi
  4052e4:	00 00 00 
  4052e7:	48 89 c7             	mov    %rax,%rdi
  4052ea:	e8 b1 cf ff ff       	callq  4022a0 <_ZNSolsEPFRSoS_E@plt>
  4052ef:	48 89 85 f8 fe ff ff 	mov    %rax,-0x108(%rbp)
  4052f6:	81 3c 25 d4 d7 61 00 	cmpl   $0x503,0x61d7d4
  4052fd:	03 05 00 00 
  405301:	0f 85 75 00 00 00    	jne    40537c <_ZN7jikoLib5GLLib6ShaderINS0_12VertexShaderENS0_11GLAllocatorINS0_12Alloc_ShaderEEEElsERKSs+0xe3c>
  405307:	48 bf c0 d6 61 00 00 	movabs $0x61d6c0,%rdi
  40530e:	00 00 00 
  405311:	48 be 2a 8d 41 00 00 	movabs $0x418d2a,%rsi
  405318:	00 00 00 
  40531b:	e8 40 cf ff ff       	callq  402260 <_ZStlsISt11char_traitsIcEERSt13basic_ostreamIcT_ES5_PKc@plt>
  405320:	48 be f2 8c 41 00 00 	movabs $0x418cf2,%rsi
  405327:	00 00 00 
  40532a:	48 89 c7             	mov    %rax,%rdi
  40532d:	e8 2e cf ff ff       	callq  402260 <_ZStlsISt11char_traitsIcEERSt13basic_ostreamIcT_ES5_PKc@plt>
  405332:	48 be ad 8d 41 00 00 	movabs $0x418dad,%rsi
  405339:	00 00 00 
  40533c:	48 89 c7             	mov    %rax,%rdi
  40533f:	e8 1c cf ff ff       	callq  402260 <_ZStlsISt11char_traitsIcEERSt13basic_ostreamIcT_ES5_PKc@plt>
  405344:	48 be 93 8c 41 00 00 	movabs $0x418c93,%rsi
  40534b:	00 00 00 
  40534e:	48 89 c7             	mov    %rax,%rdi
  405351:	e8 0a cf ff ff       	callq  402260 <_ZStlsISt11char_traitsIcEERSt13basic_ostreamIcT_ES5_PKc@plt>
  405356:	be 89 00 00 00       	mov    $0x89,%esi
  40535b:	48 89 c7             	mov    %rax,%rdi
  40535e:	e8 5d d0 ff ff       	callq  4023c0 <_ZNSolsEi@plt>
  405363:	48 be 80 21 40 00 00 	movabs $0x402180,%rsi
  40536a:	00 00 00 
  40536d:	48 89 c7             	mov    %rax,%rdi
  405370:	e8 2b cf ff ff       	callq  4022a0 <_ZNSolsEPFRSoS_E@plt>
  405375:	48 89 85 f0 fe ff ff 	mov    %rax,-0x110(%rbp)
  40537c:	81 3c 25 d4 d7 61 00 	cmpl   $0x504,0x61d7d4
  405383:	04 05 00 00 
  405387:	0f 85 75 00 00 00    	jne    405402 <_ZN7jikoLib5GLLib6ShaderINS0_12VertexShaderENS0_11GLAllocatorINS0_12Alloc_ShaderEEEElsERKSs+0xec2>
  40538d:	48 bf c0 d6 61 00 00 	movabs $0x61d6c0,%rdi
  405394:	00 00 00 
  405397:	48 be 3c 8d 41 00 00 	movabs $0x418d3c,%rsi
  40539e:	00 00 00 
  4053a1:	e8 ba ce ff ff       	callq  402260 <_ZStlsISt11char_traitsIcEERSt13basic_ostreamIcT_ES5_PKc@plt>
  4053a6:	48 be f2 8c 41 00 00 	movabs $0x418cf2,%rsi
  4053ad:	00 00 00 
  4053b0:	48 89 c7             	mov    %rax,%rdi
  4053b3:	e8 a8 ce ff ff       	callq  402260 <_ZStlsISt11char_traitsIcEERSt13basic_ostreamIcT_ES5_PKc@plt>
  4053b8:	48 be ad 8d 41 00 00 	movabs $0x418dad,%rsi
  4053bf:	00 00 00 
  4053c2:	48 89 c7             	mov    %rax,%rdi
  4053c5:	e8 96 ce ff ff       	callq  402260 <_ZStlsISt11char_traitsIcEERSt13basic_ostreamIcT_ES5_PKc@plt>
  4053ca:	48 be 93 8c 41 00 00 	movabs $0x418c93,%rsi
  4053d1:	00 00 00 
  4053d4:	48 89 c7             	mov    %rax,%rdi
  4053d7:	e8 84 ce ff ff       	callq  402260 <_ZStlsISt11char_traitsIcEERSt13basic_ostreamIcT_ES5_PKc@plt>
  4053dc:	be 89 00 00 00       	mov    $0x89,%esi
  4053e1:	48 89 c7             	mov    %rax,%rdi
  4053e4:	e8 d7 cf ff ff       	callq  4023c0 <_ZNSolsEi@plt>
  4053e9:	48 be 80 21 40 00 00 	movabs $0x402180,%rsi
  4053f0:	00 00 00 
  4053f3:	48 89 c7             	mov    %rax,%rdi
  4053f6:	e8 a5 ce ff ff       	callq  4022a0 <_ZNSolsEPFRSoS_E@plt>
  4053fb:	48 89 85 e8 fe ff ff 	mov    %rax,-0x118(%rbp)
  405402:	81 3c 25 d4 d7 61 00 	cmpl   $0x505,0x61d7d4
  405409:	05 05 00 00 
  40540d:	0f 85 75 00 00 00    	jne    405488 <_ZN7jikoLib5GLLib6ShaderINS0_12VertexShaderENS0_11GLAllocatorINS0_12Alloc_ShaderEEEElsERKSs+0xf48>
  405413:	48 bf c0 d6 61 00 00 	movabs $0x61d6c0,%rdi
  40541a:	00 00 00 
  40541d:	48 be 4f 8d 41 00 00 	movabs $0x418d4f,%rsi
  405424:	00 00 00 
  405427:	e8 34 ce ff ff       	callq  402260 <_ZStlsISt11char_traitsIcEERSt13basic_ostreamIcT_ES5_PKc@plt>
  40542c:	48 be f2 8c 41 00 00 	movabs $0x418cf2,%rsi
  405433:	00 00 00 
  405436:	48 89 c7             	mov    %rax,%rdi
  405439:	e8 22 ce ff ff       	callq  402260 <_ZStlsISt11char_traitsIcEERSt13basic_ostreamIcT_ES5_PKc@plt>
  40543e:	48 be ad 8d 41 00 00 	movabs $0x418dad,%rsi
  405445:	00 00 00 
  405448:	48 89 c7             	mov    %rax,%rdi
  40544b:	e8 10 ce ff ff       	callq  402260 <_ZStlsISt11char_traitsIcEERSt13basic_ostreamIcT_ES5_PKc@plt>
  405450:	48 be 93 8c 41 00 00 	movabs $0x418c93,%rsi
  405457:	00 00 00 
  40545a:	48 89 c7             	mov    %rax,%rdi
  40545d:	e8 fe cd ff ff       	callq  402260 <_ZStlsISt11char_traitsIcEERSt13basic_ostreamIcT_ES5_PKc@plt>
  405462:	be 89 00 00 00       	mov    $0x89,%esi
  405467:	48 89 c7             	mov    %rax,%rdi
  40546a:	e8 51 cf ff ff       	callq  4023c0 <_ZNSolsEi@plt>
  40546f:	48 be 80 21 40 00 00 	movabs $0x402180,%rsi
  405476:	00 00 00 
  405479:	48 89 c7             	mov    %rax,%rdi
  40547c:	e8 1f ce ff ff       	callq  4022a0 <_ZNSolsEPFRSoS_E@plt>
  405481:	48 89 85 e0 fe ff ff 	mov    %rax,-0x120(%rbp)
  405488:	81 3c 25 d4 d7 61 00 	cmpl   $0x8031,0x61d7d4
  40548f:	31 80 00 00 
  405493:	0f 85 75 00 00 00    	jne    40550e <_ZN7jikoLib5GLLib6ShaderINS0_12VertexShaderENS0_11GLAllocatorINS0_12Alloc_ShaderEEEElsERKSs+0xfce>
  405499:	48 bf c0 d6 61 00 00 	movabs $0x61d6c0,%rdi
  4054a0:	00 00 00 
  4054a3:	48 be 60 8d 41 00 00 	movabs $0x418d60,%rsi
  4054aa:	00 00 00 
  4054ad:	e8 ae cd ff ff       	callq  402260 <_ZStlsISt11char_traitsIcEERSt13basic_ostreamIcT_ES5_PKc@plt>
  4054b2:	48 be f2 8c 41 00 00 	movabs $0x418cf2,%rsi
  4054b9:	00 00 00 
  4054bc:	48 89 c7             	mov    %rax,%rdi
  4054bf:	e8 9c cd ff ff       	callq  402260 <_ZStlsISt11char_traitsIcEERSt13basic_ostreamIcT_ES5_PKc@plt>
  4054c4:	48 be ad 8d 41 00 00 	movabs $0x418dad,%rsi
  4054cb:	00 00 00 
  4054ce:	48 89 c7             	mov    %rax,%rdi
  4054d1:	e8 8a cd ff ff       	callq  402260 <_ZStlsISt11char_traitsIcEERSt13basic_ostreamIcT_ES5_PKc@plt>
  4054d6:	48 be 93 8c 41 00 00 	movabs $0x418c93,%rsi
  4054dd:	00 00 00 
  4054e0:	48 89 c7             	mov    %rax,%rdi
  4054e3:	e8 78 cd ff ff       	callq  402260 <_ZStlsISt11char_traitsIcEERSt13basic_ostreamIcT_ES5_PKc@plt>
  4054e8:	be 89 00 00 00       	mov    $0x89,%esi
  4054ed:	48 89 c7             	mov    %rax,%rdi
  4054f0:	e8 cb ce ff ff       	callq  4023c0 <_ZNSolsEi@plt>
  4054f5:	48 be 80 21 40 00 00 	movabs $0x402180,%rsi
  4054fc:	00 00 00 
  4054ff:	48 89 c7             	mov    %rax,%rdi
  405502:	e8 99 cd ff ff       	callq  4022a0 <_ZNSolsEPFRSoS_E@plt>
  405507:	48 89 85 d8 fe ff ff 	mov    %rax,-0x128(%rbp)
  40550e:	81 7d dc 00 00 00 00 	cmpl   $0x0,-0x24(%rbp)
  405515:	0f 8e 39 04 00 00    	jle    405954 <_ZN7jikoLib5GLLib6ShaderINS0_12VertexShaderENS0_11GLAllocatorINS0_12Alloc_ShaderEEEElsERKSs+0x1414>
  40551b:	48 b8 ff ff ff ff ff 	movabs $0xffffffffffffffff,%rax
  405522:	ff ff ff 
  405525:	48 63 4d dc          	movslq -0x24(%rbp),%rcx
  405529:	48 81 f9 00 00 00 00 	cmp    $0x0,%rcx
  405530:	48 0f 4c c8          	cmovl  %rax,%rcx
  405534:	48 89 cf             	mov    %rcx,%rdi
  405537:	e8 74 cb ff ff       	callq  4020b0 <_Znam@plt>
  40553c:	48 8d 55 d8          	lea    -0x28(%rbp),%rdx
  405540:	48 89 45 d0          	mov    %rax,-0x30(%rbp)
  405544:	48 8b 04 25 18 d5 61 	mov    0x61d518,%rax
  40554b:	00 
  40554c:	48 8b 4d c8          	mov    -0x38(%rbp),%rcx
  405550:	8b 39                	mov    (%rcx),%edi
  405552:	8b 75 dc             	mov    -0x24(%rbp),%esi
  405555:	48 8b 4d d0          	mov    -0x30(%rbp),%rcx
  405559:	ff d0                	callq  *%rax
  40555b:	e8 30 cc ff ff       	callq  402190 <glGetError@plt>
  405560:	89 04 25 d4 d7 61 00 	mov    %eax,0x61d7d4
  405567:	81 3c 25 d4 d7 61 00 	cmpl   $0x500,0x61d7d4
  40556e:	00 05 00 00 
  405572:	0f 85 75 00 00 00    	jne    4055ed <_ZN7jikoLib5GLLib6ShaderINS0_12VertexShaderENS0_11GLAllocatorINS0_12Alloc_ShaderEEEElsERKSs+0x10ad>
  405578:	48 bf c0 d6 61 00 00 	movabs $0x61d6c0,%rdi
  40557f:	00 00 00 
  405582:	48 be e2 8c 41 00 00 	movabs $0x418ce2,%rsi
  405589:	00 00 00 
  40558c:	e8 cf cc ff ff       	callq  402260 <_ZStlsISt11char_traitsIcEERSt13basic_ostreamIcT_ES5_PKc@plt>
  405591:	48 be f2 8c 41 00 00 	movabs $0x418cf2,%rsi
  405598:	00 00 00 
  40559b:	48 89 c7             	mov    %rax,%rdi
  40559e:	e8 bd cc ff ff       	callq  402260 <_ZStlsISt11char_traitsIcEERSt13basic_ostreamIcT_ES5_PKc@plt>
  4055a3:	48 be ad 8d 41 00 00 	movabs $0x418dad,%rsi
  4055aa:	00 00 00 
  4055ad:	48 89 c7             	mov    %rax,%rdi
  4055b0:	e8 ab cc ff ff       	callq  402260 <_ZStlsISt11char_traitsIcEERSt13basic_ostreamIcT_ES5_PKc@plt>
  4055b5:	48 be 93 8c 41 00 00 	movabs $0x418c93,%rsi
  4055bc:	00 00 00 
  4055bf:	48 89 c7             	mov    %rax,%rdi
  4055c2:	e8 99 cc ff ff       	callq  402260 <_ZStlsISt11char_traitsIcEERSt13basic_ostreamIcT_ES5_PKc@plt>
  4055c7:	be 8e 00 00 00       	mov    $0x8e,%esi
  4055cc:	48 89 c7             	mov    %rax,%rdi
  4055cf:	e8 ec cd ff ff       	callq  4023c0 <_ZNSolsEi@plt>
  4055d4:	48 be 80 21 40 00 00 	movabs $0x402180,%rsi
  4055db:	00 00 00 
  4055de:	48 89 c7             	mov    %rax,%rdi
  4055e1:	e8 ba cc ff ff       	callq  4022a0 <_ZNSolsEPFRSoS_E@plt>
  4055e6:	48 89 85 d0 fe ff ff 	mov    %rax,-0x130(%rbp)
  4055ed:	81 3c 25 d4 d7 61 00 	cmpl   $0x501,0x61d7d4
  4055f4:	01 05 00 00 
  4055f8:	0f 85 75 00 00 00    	jne    405673 <_ZN7jikoLib5GLLib6ShaderINS0_12VertexShaderENS0_11GLAllocatorINS0_12Alloc_ShaderEEEElsERKSs+0x1133>
  4055fe:	48 bf c0 d6 61 00 00 	movabs $0x61d6c0,%rdi
  405605:	00 00 00 
  405608:	48 be 04 8d 41 00 00 	movabs $0x418d04,%rsi
  40560f:	00 00 00 
  405612:	e8 49 cc ff ff       	callq  402260 <_ZStlsISt11char_traitsIcEERSt13basic_ostreamIcT_ES5_PKc@plt>
  405617:	48 be f2 8c 41 00 00 	movabs $0x418cf2,%rsi
  40561e:	00 00 00 
  405621:	48 89 c7             	mov    %rax,%rdi
  405624:	e8 37 cc ff ff       	callq  402260 <_ZStlsISt11char_traitsIcEERSt13basic_ostreamIcT_ES5_PKc@plt>
  405629:	48 be ad 8d 41 00 00 	movabs $0x418dad,%rsi
  405630:	00 00 00 
  405633:	48 89 c7             	mov    %rax,%rdi
  405636:	e8 25 cc ff ff       	callq  402260 <_ZStlsISt11char_traitsIcEERSt13basic_ostreamIcT_ES5_PKc@plt>
  40563b:	48 be 93 8c 41 00 00 	movabs $0x418c93,%rsi
  405642:	00 00 00 
  405645:	48 89 c7             	mov    %rax,%rdi
  405648:	e8 13 cc ff ff       	callq  402260 <_ZStlsISt11char_traitsIcEERSt13basic_ostreamIcT_ES5_PKc@plt>
  40564d:	be 8e 00 00 00       	mov    $0x8e,%esi
  405652:	48 89 c7             	mov    %rax,%rdi
  405655:	e8 66 cd ff ff       	callq  4023c0 <_ZNSolsEi@plt>
  40565a:	48 be 80 21 40 00 00 	movabs $0x402180,%rsi
  405661:	00 00 00 
  405664:	48 89 c7             	mov    %rax,%rdi
  405667:	e8 34 cc ff ff       	callq  4022a0 <_ZNSolsEPFRSoS_E@plt>
  40566c:	48 89 85 c8 fe ff ff 	mov    %rax,-0x138(%rbp)
  405673:	81 3c 25 d4 d7 61 00 	cmpl   $0x502,0x61d7d4
  40567a:	02 05 00 00 
  40567e:	0f 85 75 00 00 00    	jne    4056f9 <_ZN7jikoLib5GLLib6ShaderINS0_12VertexShaderENS0_11GLAllocatorINS0_12Alloc_ShaderEEEElsERKSs+0x11b9>
  405684:	48 bf c0 d6 61 00 00 	movabs $0x61d6c0,%rdi
  40568b:	00 00 00 
  40568e:	48 be 15 8d 41 00 00 	movabs $0x418d15,%rsi
  405695:	00 00 00 
  405698:	e8 c3 cb ff ff       	callq  402260 <_ZStlsISt11char_traitsIcEERSt13basic_ostreamIcT_ES5_PKc@plt>
  40569d:	48 be f2 8c 41 00 00 	movabs $0x418cf2,%rsi
  4056a4:	00 00 00 
  4056a7:	48 89 c7             	mov    %rax,%rdi
  4056aa:	e8 b1 cb ff ff       	callq  402260 <_ZStlsISt11char_traitsIcEERSt13basic_ostreamIcT_ES5_PKc@plt>
  4056af:	48 be ad 8d 41 00 00 	movabs $0x418dad,%rsi
  4056b6:	00 00 00 
  4056b9:	48 89 c7             	mov    %rax,%rdi
  4056bc:	e8 9f cb ff ff       	callq  402260 <_ZStlsISt11char_traitsIcEERSt13basic_ostreamIcT_ES5_PKc@plt>
  4056c1:	48 be 93 8c 41 00 00 	movabs $0x418c93,%rsi
  4056c8:	00 00 00 
  4056cb:	48 89 c7             	mov    %rax,%rdi
  4056ce:	e8 8d cb ff ff       	callq  402260 <_ZStlsISt11char_traitsIcEERSt13basic_ostreamIcT_ES5_PKc@plt>
  4056d3:	be 8e 00 00 00       	mov    $0x8e,%esi
  4056d8:	48 89 c7             	mov    %rax,%rdi
  4056db:	e8 e0 cc ff ff       	callq  4023c0 <_ZNSolsEi@plt>
  4056e0:	48 be 80 21 40 00 00 	movabs $0x402180,%rsi
  4056e7:	00 00 00 
  4056ea:	48 89 c7             	mov    %rax,%rdi
  4056ed:	e8 ae cb ff ff       	callq  4022a0 <_ZNSolsEPFRSoS_E@plt>
  4056f2:	48 89 85 c0 fe ff ff 	mov    %rax,-0x140(%rbp)
  4056f9:	81 3c 25 d4 d7 61 00 	cmpl   $0x503,0x61d7d4
  405700:	03 05 00 00 
  405704:	0f 85 75 00 00 00    	jne    40577f <_ZN7jikoLib5GLLib6ShaderINS0_12VertexShaderENS0_11GLAllocatorINS0_12Alloc_ShaderEEEElsERKSs+0x123f>
  40570a:	48 bf c0 d6 61 00 00 	movabs $0x61d6c0,%rdi
  405711:	00 00 00 
  405714:	48 be 2a 8d 41 00 00 	movabs $0x418d2a,%rsi
  40571b:	00 00 00 
  40571e:	e8 3d cb ff ff       	callq  402260 <_ZStlsISt11char_traitsIcEERSt13basic_ostreamIcT_ES5_PKc@plt>
  405723:	48 be f2 8c 41 00 00 	movabs $0x418cf2,%rsi
  40572a:	00 00 00 
  40572d:	48 89 c7             	mov    %rax,%rdi
  405730:	e8 2b cb ff ff       	callq  402260 <_ZStlsISt11char_traitsIcEERSt13basic_ostreamIcT_ES5_PKc@plt>
  405735:	48 be ad 8d 41 00 00 	movabs $0x418dad,%rsi
  40573c:	00 00 00 
  40573f:	48 89 c7             	mov    %rax,%rdi
  405742:	e8 19 cb ff ff       	callq  402260 <_ZStlsISt11char_traitsIcEERSt13basic_ostreamIcT_ES5_PKc@plt>
  405747:	48 be 93 8c 41 00 00 	movabs $0x418c93,%rsi
  40574e:	00 00 00 
  405751:	48 89 c7             	mov    %rax,%rdi
  405754:	e8 07 cb ff ff       	callq  402260 <_ZStlsISt11char_traitsIcEERSt13basic_ostreamIcT_ES5_PKc@plt>
  405759:	be 8e 00 00 00       	mov    $0x8e,%esi
  40575e:	48 89 c7             	mov    %rax,%rdi
  405761:	e8 5a cc ff ff       	callq  4023c0 <_ZNSolsEi@plt>
  405766:	48 be 80 21 40 00 00 	movabs $0x402180,%rsi
  40576d:	00 00 00 
  405770:	48 89 c7             	mov    %rax,%rdi
  405773:	e8 28 cb ff ff       	callq  4022a0 <_ZNSolsEPFRSoS_E@plt>
  405778:	48 89 85 b8 fe ff ff 	mov    %rax,-0x148(%rbp)
  40577f:	81 3c 25 d4 d7 61 00 	cmpl   $0x504,0x61d7d4
  405786:	04 05 00 00 
  40578a:	0f 85 75 00 00 00    	jne    405805 <_ZN7jikoLib5GLLib6ShaderINS0_12VertexShaderENS0_11GLAllocatorINS0_12Alloc_ShaderEEEElsERKSs+0x12c5>
  405790:	48 bf c0 d6 61 00 00 	movabs $0x61d6c0,%rdi
  405797:	00 00 00 
  40579a:	48 be 3c 8d 41 00 00 	movabs $0x418d3c,%rsi
  4057a1:	00 00 00 
  4057a4:	e8 b7 ca ff ff       	callq  402260 <_ZStlsISt11char_traitsIcEERSt13basic_ostreamIcT_ES5_PKc@plt>
  4057a9:	48 be f2 8c 41 00 00 	movabs $0x418cf2,%rsi
  4057b0:	00 00 00 
  4057b3:	48 89 c7             	mov    %rax,%rdi
  4057b6:	e8 a5 ca ff ff       	callq  402260 <_ZStlsISt11char_traitsIcEERSt13basic_ostreamIcT_ES5_PKc@plt>
  4057bb:	48 be ad 8d 41 00 00 	movabs $0x418dad,%rsi
  4057c2:	00 00 00 
  4057c5:	48 89 c7             	mov    %rax,%rdi
  4057c8:	e8 93 ca ff ff       	callq  402260 <_ZStlsISt11char_traitsIcEERSt13basic_ostreamIcT_ES5_PKc@plt>
  4057cd:	48 be 93 8c 41 00 00 	movabs $0x418c93,%rsi
  4057d4:	00 00 00 
  4057d7:	48 89 c7             	mov    %rax,%rdi
  4057da:	e8 81 ca ff ff       	callq  402260 <_ZStlsISt11char_traitsIcEERSt13basic_ostreamIcT_ES5_PKc@plt>
  4057df:	be 8e 00 00 00       	mov    $0x8e,%esi
  4057e4:	48 89 c7             	mov    %rax,%rdi
  4057e7:	e8 d4 cb ff ff       	callq  4023c0 <_ZNSolsEi@plt>
  4057ec:	48 be 80 21 40 00 00 	movabs $0x402180,%rsi
  4057f3:	00 00 00 
  4057f6:	48 89 c7             	mov    %rax,%rdi
  4057f9:	e8 a2 ca ff ff       	callq  4022a0 <_ZNSolsEPFRSoS_E@plt>
  4057fe:	48 89 85 b0 fe ff ff 	mov    %rax,-0x150(%rbp)
  405805:	81 3c 25 d4 d7 61 00 	cmpl   $0x505,0x61d7d4
  40580c:	05 05 00 00 
  405810:	0f 85 75 00 00 00    	jne    40588b <_ZN7jikoLib5GLLib6ShaderINS0_12VertexShaderENS0_11GLAllocatorINS0_12Alloc_ShaderEEEElsERKSs+0x134b>
  405816:	48 bf c0 d6 61 00 00 	movabs $0x61d6c0,%rdi
  40581d:	00 00 00 
  405820:	48 be 4f 8d 41 00 00 	movabs $0x418d4f,%rsi
  405827:	00 00 00 
  40582a:	e8 31 ca ff ff       	callq  402260 <_ZStlsISt11char_traitsIcEERSt13basic_ostreamIcT_ES5_PKc@plt>
  40582f:	48 be f2 8c 41 00 00 	movabs $0x418cf2,%rsi
  405836:	00 00 00 
  405839:	48 89 c7             	mov    %rax,%rdi
  40583c:	e8 1f ca ff ff       	callq  402260 <_ZStlsISt11char_traitsIcEERSt13basic_ostreamIcT_ES5_PKc@plt>
  405841:	48 be ad 8d 41 00 00 	movabs $0x418dad,%rsi
  405848:	00 00 00 
  40584b:	48 89 c7             	mov    %rax,%rdi
  40584e:	e8 0d ca ff ff       	callq  402260 <_ZStlsISt11char_traitsIcEERSt13basic_ostreamIcT_ES5_PKc@plt>
  405853:	48 be 93 8c 41 00 00 	movabs $0x418c93,%rsi
  40585a:	00 00 00 
  40585d:	48 89 c7             	mov    %rax,%rdi
  405860:	e8 fb c9 ff ff       	callq  402260 <_ZStlsISt11char_traitsIcEERSt13basic_ostreamIcT_ES5_PKc@plt>
  405865:	be 8e 00 00 00       	mov    $0x8e,%esi
  40586a:	48 89 c7             	mov    %rax,%rdi
  40586d:	e8 4e cb ff ff       	callq  4023c0 <_ZNSolsEi@plt>
  405872:	48 be 80 21 40 00 00 	movabs $0x402180,%rsi
  405879:	00 00 00 
  40587c:	48 89 c7             	mov    %rax,%rdi
  40587f:	e8 1c ca ff ff       	callq  4022a0 <_ZNSolsEPFRSoS_E@plt>
  405884:	48 89 85 a8 fe ff ff 	mov    %rax,-0x158(%rbp)
  40588b:	81 3c 25 d4 d7 61 00 	cmpl   $0x8031,0x61d7d4
  405892:	31 80 00 00 
  405896:	0f 85 75 00 00 00    	jne    405911 <_ZN7jikoLib5GLLib6ShaderINS0_12VertexShaderENS0_11GLAllocatorINS0_12Alloc_ShaderEEEElsERKSs+0x13d1>
  40589c:	48 bf c0 d6 61 00 00 	movabs $0x61d6c0,%rdi
  4058a3:	00 00 00 
  4058a6:	48 be 60 8d 41 00 00 	movabs $0x418d60,%rsi
  4058ad:	00 00 00 
  4058b0:	e8 ab c9 ff ff       	callq  402260 <_ZStlsISt11char_traitsIcEERSt13basic_ostreamIcT_ES5_PKc@plt>
  4058b5:	48 be f2 8c 41 00 00 	movabs $0x418cf2,%rsi
  4058bc:	00 00 00 
  4058bf:	48 89 c7             	mov    %rax,%rdi
  4058c2:	e8 99 c9 ff ff       	callq  402260 <_ZStlsISt11char_traitsIcEERSt13basic_ostreamIcT_ES5_PKc@plt>
  4058c7:	48 be ad 8d 41 00 00 	movabs $0x418dad,%rsi
  4058ce:	00 00 00 
  4058d1:	48 89 c7             	mov    %rax,%rdi
  4058d4:	e8 87 c9 ff ff       	callq  402260 <_ZStlsISt11char_traitsIcEERSt13basic_ostreamIcT_ES5_PKc@plt>
  4058d9:	48 be 93 8c 41 00 00 	movabs $0x418c93,%rsi
  4058e0:	00 00 00 
  4058e3:	48 89 c7             	mov    %rax,%rdi
  4058e6:	e8 75 c9 ff ff       	callq  402260 <_ZStlsISt11char_traitsIcEERSt13basic_ostreamIcT_ES5_PKc@plt>
  4058eb:	be 8e 00 00 00       	mov    $0x8e,%esi
  4058f0:	48 89 c7             	mov    %rax,%rdi
  4058f3:	e8 c8 ca ff ff       	callq  4023c0 <_ZNSolsEi@plt>
  4058f8:	48 be 80 21 40 00 00 	movabs $0x402180,%rsi
  4058ff:	00 00 00 
  405902:	48 89 c7             	mov    %rax,%rdi
  405905:	e8 96 c9 ff ff       	callq  4022a0 <_ZNSolsEPFRSoS_E@plt>
  40590a:	48 89 85 a0 fe ff ff 	mov    %rax,-0x160(%rbp)
  405911:	48 bf c0 d6 61 00 00 	movabs $0x61d6c0,%rdi
  405918:	00 00 00 
  40591b:	48 8b 75 d0          	mov    -0x30(%rbp),%rsi
  40591f:	e8 3c c9 ff ff       	callq  402260 <_ZStlsISt11char_traitsIcEERSt13basic_ostreamIcT_ES5_PKc@plt>
  405924:	48 8b 75 d0          	mov    -0x30(%rbp),%rsi
  405928:	48 81 fe 00 00 00 00 	cmp    $0x0,%rsi
  40592f:	48 89 85 98 fe ff ff 	mov    %rax,-0x168(%rbp)
  405936:	48 89 b5 90 fe ff ff 	mov    %rsi,-0x170(%rbp)
  40593d:	0f 84 0c 00 00 00    	je     40594f <_ZN7jikoLib5GLLib6ShaderINS0_12VertexShaderENS0_11GLAllocatorINS0_12Alloc_ShaderEEEElsERKSs+0x140f>
  405943:	48 8b bd 90 fe ff ff 	mov    -0x170(%rbp),%rdi
  40594a:	e8 81 c9 ff ff       	callq  4022d0 <_ZdaPv@plt>
  40594f:	e9 00 00 00 00       	jmpq   405954 <_ZN7jikoLib5GLLib6ShaderINS0_12VertexShaderENS0_11GLAllocatorINS0_12Alloc_ShaderEEEElsERKSs+0x1414>
  405954:	48 bf c0 d6 61 00 00 	movabs $0x61d6c0,%rdi
  40595b:	00 00 00 
  40595e:	48 be 80 21 40 00 00 	movabs $0x402180,%rsi
  405965:	00 00 00 
  405968:	e8 33 c9 ff ff       	callq  4022a0 <_ZNSolsEPFRSoS_E@plt>
  40596d:	48 89 85 88 fe ff ff 	mov    %rax,-0x178(%rbp)
  405974:	e9 3a 00 00 00       	jmpq   4059b3 <_ZN7jikoLib5GLLib6ShaderINS0_12VertexShaderENS0_11GLAllocatorINS0_12Alloc_ShaderEEEElsERKSs+0x1473>
  405979:	48 bf 40 d5 61 00 00 	movabs $0x61d540,%rdi
  405980:	00 00 00 
  405983:	48 be a5 8f 41 00 00 	movabs $0x418fa5,%rsi
  40598a:	00 00 00 
  40598d:	48 8b 45 c8          	mov    -0x38(%rbp),%rax
  405991:	c6 40 04 01          	movb   $0x1,0x4(%rax)
  405995:	e8 c6 c8 ff ff       	callq  402260 <_ZStlsISt11char_traitsIcEERSt13basic_ostreamIcT_ES5_PKc@plt>
  40599a:	48 be 80 21 40 00 00 	movabs $0x402180,%rsi
  4059a1:	00 00 00 
  4059a4:	48 89 c7             	mov    %rax,%rdi
  4059a7:	e8 f4 c8 ff ff       	callq  4022a0 <_ZNSolsEPFRSoS_E@plt>
  4059ac:	48 89 85 80 fe ff ff 	mov    %rax,-0x180(%rbp)
  4059b3:	48 8b 45 c8          	mov    -0x38(%rbp),%rax
  4059b7:	48 81 c4 80 01 00 00 	add    $0x180,%rsp
  4059be:	5d                   	pop    %rbp
  4059bf:	c3                   	retq   

00000000004059c0 <_ZN7jikoLib5GLLib6ShaderINS0_14FragmentShaderENS0_11GLAllocatorINS0_12Alloc_ShaderEEEElsERKSs>:
  4059c0:	55                   	push   %rbp
  4059c1:	48 89 e5             	mov    %rsp,%rbp
  4059c4:	48 81 ec 80 01 00 00 	sub    $0x180,%rsp
  4059cb:	48 89 7d f8          	mov    %rdi,-0x8(%rbp)
  4059cf:	48 89 75 f0          	mov    %rsi,-0x10(%rbp)
  4059d3:	48 8b 75 f8          	mov    -0x8(%rbp),%rsi
  4059d7:	48 8b 7d f0          	mov    -0x10(%rbp),%rdi
  4059db:	48 89 75 c8          	mov    %rsi,-0x38(%rbp)
  4059df:	e8 2c c9 ff ff       	callq  402310 <_ZNKSs5c_strEv@plt>
  4059e4:	48 89 45 e8          	mov    %rax,-0x18(%rbp)
  4059e8:	48 8b 7d f0          	mov    -0x10(%rbp),%rdi
  4059ec:	e8 4f ca ff ff       	callq  402440 <_ZNKSs6lengthEv@plt>
  4059f1:	be 01 00 00 00       	mov    $0x1,%esi
  4059f6:	48 8d 55 e8          	lea    -0x18(%rbp),%rdx
  4059fa:	48 8d 4d e4          	lea    -0x1c(%rbp),%rcx
  4059fe:	41 89 c0             	mov    %eax,%r8d
  405a01:	44 89 45 e4          	mov    %r8d,-0x1c(%rbp)
  405a05:	48 8b 04 25 f8 d4 61 	mov    0x61d4f8,%rax
  405a0c:	00 
  405a0d:	48 8b 7d c8          	mov    -0x38(%rbp),%rdi
  405a11:	8b 3f                	mov    (%rdi),%edi
  405a13:	ff d0                	callq  *%rax
  405a15:	e8 76 c7 ff ff       	callq  402190 <glGetError@plt>
  405a1a:	89 04 25 d4 d7 61 00 	mov    %eax,0x61d7d4
  405a21:	81 3c 25 d4 d7 61 00 	cmpl   $0x500,0x61d7d4
  405a28:	00 05 00 00 
  405a2c:	0f 85 72 00 00 00    	jne    405aa4 <_ZN7jikoLib5GLLib6ShaderINS0_14FragmentShaderENS0_11GLAllocatorINS0_12Alloc_ShaderEEEElsERKSs+0xe4>
  405a32:	48 bf c0 d6 61 00 00 	movabs $0x61d6c0,%rdi
  405a39:	00 00 00 
  405a3c:	48 be e2 8c 41 00 00 	movabs $0x418ce2,%rsi
  405a43:	00 00 00 
  405a46:	e8 15 c8 ff ff       	callq  402260 <_ZStlsISt11char_traitsIcEERSt13basic_ostreamIcT_ES5_PKc@plt>
  405a4b:	48 be f2 8c 41 00 00 	movabs $0x418cf2,%rsi
  405a52:	00 00 00 
  405a55:	48 89 c7             	mov    %rax,%rdi
  405a58:	e8 03 c8 ff ff       	callq  402260 <_ZStlsISt11char_traitsIcEERSt13basic_ostreamIcT_ES5_PKc@plt>
  405a5d:	48 be ad 8d 41 00 00 	movabs $0x418dad,%rsi
  405a64:	00 00 00 
  405a67:	48 89 c7             	mov    %rax,%rdi
  405a6a:	e8 f1 c7 ff ff       	callq  402260 <_ZStlsISt11char_traitsIcEERSt13basic_ostreamIcT_ES5_PKc@plt>
  405a6f:	48 be 93 8c 41 00 00 	movabs $0x418c93,%rsi
  405a76:	00 00 00 
  405a79:	48 89 c7             	mov    %rax,%rdi
  405a7c:	e8 df c7 ff ff       	callq  402260 <_ZStlsISt11char_traitsIcEERSt13basic_ostreamIcT_ES5_PKc@plt>
  405a81:	be 7a 00 00 00       	mov    $0x7a,%esi
  405a86:	48 89 c7             	mov    %rax,%rdi
  405a89:	e8 32 c9 ff ff       	callq  4023c0 <_ZNSolsEi@plt>
  405a8e:	48 be 80 21 40 00 00 	movabs $0x402180,%rsi
  405a95:	00 00 00 
  405a98:	48 89 c7             	mov    %rax,%rdi
  405a9b:	e8 00 c8 ff ff       	callq  4022a0 <_ZNSolsEPFRSoS_E@plt>
  405aa0:	48 89 45 c0          	mov    %rax,-0x40(%rbp)
  405aa4:	81 3c 25 d4 d7 61 00 	cmpl   $0x501,0x61d7d4
  405aab:	01 05 00 00 
  405aaf:	0f 85 72 00 00 00    	jne    405b27 <_ZN7jikoLib5GLLib6ShaderINS0_14FragmentShaderENS0_11GLAllocatorINS0_12Alloc_ShaderEEEElsERKSs+0x167>
  405ab5:	48 bf c0 d6 61 00 00 	movabs $0x61d6c0,%rdi
  405abc:	00 00 00 
  405abf:	48 be 04 8d 41 00 00 	movabs $0x418d04,%rsi
  405ac6:	00 00 00 
  405ac9:	e8 92 c7 ff ff       	callq  402260 <_ZStlsISt11char_traitsIcEERSt13basic_ostreamIcT_ES5_PKc@plt>
  405ace:	48 be f2 8c 41 00 00 	movabs $0x418cf2,%rsi
  405ad5:	00 00 00 
  405ad8:	48 89 c7             	mov    %rax,%rdi
  405adb:	e8 80 c7 ff ff       	callq  402260 <_ZStlsISt11char_traitsIcEERSt13basic_ostreamIcT_ES5_PKc@plt>
  405ae0:	48 be ad 8d 41 00 00 	movabs $0x418dad,%rsi
  405ae7:	00 00 00 
  405aea:	48 89 c7             	mov    %rax,%rdi
  405aed:	e8 6e c7 ff ff       	callq  402260 <_ZStlsISt11char_traitsIcEERSt13basic_ostreamIcT_ES5_PKc@plt>
  405af2:	48 be 93 8c 41 00 00 	movabs $0x418c93,%rsi
  405af9:	00 00 00 
  405afc:	48 89 c7             	mov    %rax,%rdi
  405aff:	e8 5c c7 ff ff       	callq  402260 <_ZStlsISt11char_traitsIcEERSt13basic_ostreamIcT_ES5_PKc@plt>
  405b04:	be 7a 00 00 00       	mov    $0x7a,%esi
  405b09:	48 89 c7             	mov    %rax,%rdi
  405b0c:	e8 af c8 ff ff       	callq  4023c0 <_ZNSolsEi@plt>
  405b11:	48 be 80 21 40 00 00 	movabs $0x402180,%rsi
  405b18:	00 00 00 
  405b1b:	48 89 c7             	mov    %rax,%rdi
  405b1e:	e8 7d c7 ff ff       	callq  4022a0 <_ZNSolsEPFRSoS_E@plt>
  405b23:	48 89 45 b8          	mov    %rax,-0x48(%rbp)
  405b27:	81 3c 25 d4 d7 61 00 	cmpl   $0x502,0x61d7d4
  405b2e:	02 05 00 00 
  405b32:	0f 85 72 00 00 00    	jne    405baa <_ZN7jikoLib5GLLib6ShaderINS0_14FragmentShaderENS0_11GLAllocatorINS0_12Alloc_ShaderEEEElsERKSs+0x1ea>
  405b38:	48 bf c0 d6 61 00 00 	movabs $0x61d6c0,%rdi
  405b3f:	00 00 00 
  405b42:	48 be 15 8d 41 00 00 	movabs $0x418d15,%rsi
  405b49:	00 00 00 
  405b4c:	e8 0f c7 ff ff       	callq  402260 <_ZStlsISt11char_traitsIcEERSt13basic_ostreamIcT_ES5_PKc@plt>
  405b51:	48 be f2 8c 41 00 00 	movabs $0x418cf2,%rsi
  405b58:	00 00 00 
  405b5b:	48 89 c7             	mov    %rax,%rdi
  405b5e:	e8 fd c6 ff ff       	callq  402260 <_ZStlsISt11char_traitsIcEERSt13basic_ostreamIcT_ES5_PKc@plt>
  405b63:	48 be ad 8d 41 00 00 	movabs $0x418dad,%rsi
  405b6a:	00 00 00 
  405b6d:	48 89 c7             	mov    %rax,%rdi
  405b70:	e8 eb c6 ff ff       	callq  402260 <_ZStlsISt11char_traitsIcEERSt13basic_ostreamIcT_ES5_PKc@plt>
  405b75:	48 be 93 8c 41 00 00 	movabs $0x418c93,%rsi
  405b7c:	00 00 00 
  405b7f:	48 89 c7             	mov    %rax,%rdi
  405b82:	e8 d9 c6 ff ff       	callq  402260 <_ZStlsISt11char_traitsIcEERSt13basic_ostreamIcT_ES5_PKc@plt>
  405b87:	be 7a 00 00 00       	mov    $0x7a,%esi
  405b8c:	48 89 c7             	mov    %rax,%rdi
  405b8f:	e8 2c c8 ff ff       	callq  4023c0 <_ZNSolsEi@plt>
  405b94:	48 be 80 21 40 00 00 	movabs $0x402180,%rsi
  405b9b:	00 00 00 
  405b9e:	48 89 c7             	mov    %rax,%rdi
  405ba1:	e8 fa c6 ff ff       	callq  4022a0 <_ZNSolsEPFRSoS_E@plt>
  405ba6:	48 89 45 b0          	mov    %rax,-0x50(%rbp)
  405baa:	81 3c 25 d4 d7 61 00 	cmpl   $0x503,0x61d7d4
  405bb1:	03 05 00 00 
  405bb5:	0f 85 72 00 00 00    	jne    405c2d <_ZN7jikoLib5GLLib6ShaderINS0_14FragmentShaderENS0_11GLAllocatorINS0_12Alloc_ShaderEEEElsERKSs+0x26d>
  405bbb:	48 bf c0 d6 61 00 00 	movabs $0x61d6c0,%rdi
  405bc2:	00 00 00 
  405bc5:	48 be 2a 8d 41 00 00 	movabs $0x418d2a,%rsi
  405bcc:	00 00 00 
  405bcf:	e8 8c c6 ff ff       	callq  402260 <_ZStlsISt11char_traitsIcEERSt13basic_ostreamIcT_ES5_PKc@plt>
  405bd4:	48 be f2 8c 41 00 00 	movabs $0x418cf2,%rsi
  405bdb:	00 00 00 
  405bde:	48 89 c7             	mov    %rax,%rdi
  405be1:	e8 7a c6 ff ff       	callq  402260 <_ZStlsISt11char_traitsIcEERSt13basic_ostreamIcT_ES5_PKc@plt>
  405be6:	48 be ad 8d 41 00 00 	movabs $0x418dad,%rsi
  405bed:	00 00 00 
  405bf0:	48 89 c7             	mov    %rax,%rdi
  405bf3:	e8 68 c6 ff ff       	callq  402260 <_ZStlsISt11char_traitsIcEERSt13basic_ostreamIcT_ES5_PKc@plt>
  405bf8:	48 be 93 8c 41 00 00 	movabs $0x418c93,%rsi
  405bff:	00 00 00 
  405c02:	48 89 c7             	mov    %rax,%rdi
  405c05:	e8 56 c6 ff ff       	callq  402260 <_ZStlsISt11char_traitsIcEERSt13basic_ostreamIcT_ES5_PKc@plt>
  405c0a:	be 7a 00 00 00       	mov    $0x7a,%esi
  405c0f:	48 89 c7             	mov    %rax,%rdi
  405c12:	e8 a9 c7 ff ff       	callq  4023c0 <_ZNSolsEi@plt>
  405c17:	48 be 80 21 40 00 00 	movabs $0x402180,%rsi
  405c1e:	00 00 00 
  405c21:	48 89 c7             	mov    %rax,%rdi
  405c24:	e8 77 c6 ff ff       	callq  4022a0 <_ZNSolsEPFRSoS_E@plt>
  405c29:	48 89 45 a8          	mov    %rax,-0x58(%rbp)
  405c2d:	81 3c 25 d4 d7 61 00 	cmpl   $0x504,0x61d7d4
  405c34:	04 05 00 00 
  405c38:	0f 85 72 00 00 00    	jne    405cb0 <_ZN7jikoLib5GLLib6ShaderINS0_14FragmentShaderENS0_11GLAllocatorINS0_12Alloc_ShaderEEEElsERKSs+0x2f0>
  405c3e:	48 bf c0 d6 61 00 00 	movabs $0x61d6c0,%rdi
  405c45:	00 00 00 
  405c48:	48 be 3c 8d 41 00 00 	movabs $0x418d3c,%rsi
  405c4f:	00 00 00 
  405c52:	e8 09 c6 ff ff       	callq  402260 <_ZStlsISt11char_traitsIcEERSt13basic_ostreamIcT_ES5_PKc@plt>
  405c57:	48 be f2 8c 41 00 00 	movabs $0x418cf2,%rsi
  405c5e:	00 00 00 
  405c61:	48 89 c7             	mov    %rax,%rdi
  405c64:	e8 f7 c5 ff ff       	callq  402260 <_ZStlsISt11char_traitsIcEERSt13basic_ostreamIcT_ES5_PKc@plt>
  405c69:	48 be ad 8d 41 00 00 	movabs $0x418dad,%rsi
  405c70:	00 00 00 
  405c73:	48 89 c7             	mov    %rax,%rdi
  405c76:	e8 e5 c5 ff ff       	callq  402260 <_ZStlsISt11char_traitsIcEERSt13basic_ostreamIcT_ES5_PKc@plt>
  405c7b:	48 be 93 8c 41 00 00 	movabs $0x418c93,%rsi
  405c82:	00 00 00 
  405c85:	48 89 c7             	mov    %rax,%rdi
  405c88:	e8 d3 c5 ff ff       	callq  402260 <_ZStlsISt11char_traitsIcEERSt13basic_ostreamIcT_ES5_PKc@plt>
  405c8d:	be 7a 00 00 00       	mov    $0x7a,%esi
  405c92:	48 89 c7             	mov    %rax,%rdi
  405c95:	e8 26 c7 ff ff       	callq  4023c0 <_ZNSolsEi@plt>
  405c9a:	48 be 80 21 40 00 00 	movabs $0x402180,%rsi
  405ca1:	00 00 00 
  405ca4:	48 89 c7             	mov    %rax,%rdi
  405ca7:	e8 f4 c5 ff ff       	callq  4022a0 <_ZNSolsEPFRSoS_E@plt>
  405cac:	48 89 45 a0          	mov    %rax,-0x60(%rbp)
  405cb0:	81 3c 25 d4 d7 61 00 	cmpl   $0x505,0x61d7d4
  405cb7:	05 05 00 00 
  405cbb:	0f 85 72 00 00 00    	jne    405d33 <_ZN7jikoLib5GLLib6ShaderINS0_14FragmentShaderENS0_11GLAllocatorINS0_12Alloc_ShaderEEEElsERKSs+0x373>
  405cc1:	48 bf c0 d6 61 00 00 	movabs $0x61d6c0,%rdi
  405cc8:	00 00 00 
  405ccb:	48 be 4f 8d 41 00 00 	movabs $0x418d4f,%rsi
  405cd2:	00 00 00 
  405cd5:	e8 86 c5 ff ff       	callq  402260 <_ZStlsISt11char_traitsIcEERSt13basic_ostreamIcT_ES5_PKc@plt>
  405cda:	48 be f2 8c 41 00 00 	movabs $0x418cf2,%rsi
  405ce1:	00 00 00 
  405ce4:	48 89 c7             	mov    %rax,%rdi
  405ce7:	e8 74 c5 ff ff       	callq  402260 <_ZStlsISt11char_traitsIcEERSt13basic_ostreamIcT_ES5_PKc@plt>
  405cec:	48 be ad 8d 41 00 00 	movabs $0x418dad,%rsi
  405cf3:	00 00 00 
  405cf6:	48 89 c7             	mov    %rax,%rdi
  405cf9:	e8 62 c5 ff ff       	callq  402260 <_ZStlsISt11char_traitsIcEERSt13basic_ostreamIcT_ES5_PKc@plt>
  405cfe:	48 be 93 8c 41 00 00 	movabs $0x418c93,%rsi
  405d05:	00 00 00 
  405d08:	48 89 c7             	mov    %rax,%rdi
  405d0b:	e8 50 c5 ff ff       	callq  402260 <_ZStlsISt11char_traitsIcEERSt13basic_ostreamIcT_ES5_PKc@plt>
  405d10:	be 7a 00 00 00       	mov    $0x7a,%esi
  405d15:	48 89 c7             	mov    %rax,%rdi
  405d18:	e8 a3 c6 ff ff       	callq  4023c0 <_ZNSolsEi@plt>
  405d1d:	48 be 80 21 40 00 00 	movabs $0x402180,%rsi
  405d24:	00 00 00 
  405d27:	48 89 c7             	mov    %rax,%rdi
  405d2a:	e8 71 c5 ff ff       	callq  4022a0 <_ZNSolsEPFRSoS_E@plt>
  405d2f:	48 89 45 98          	mov    %rax,-0x68(%rbp)
  405d33:	81 3c 25 d4 d7 61 00 	cmpl   $0x8031,0x61d7d4
  405d3a:	31 80 00 00 
  405d3e:	0f 85 72 00 00 00    	jne    405db6 <_ZN7jikoLib5GLLib6ShaderINS0_14FragmentShaderENS0_11GLAllocatorINS0_12Alloc_ShaderEEEElsERKSs+0x3f6>
  405d44:	48 bf c0 d6 61 00 00 	movabs $0x61d6c0,%rdi
  405d4b:	00 00 00 
  405d4e:	48 be 60 8d 41 00 00 	movabs $0x418d60,%rsi
  405d55:	00 00 00 
  405d58:	e8 03 c5 ff ff       	callq  402260 <_ZStlsISt11char_traitsIcEERSt13basic_ostreamIcT_ES5_PKc@plt>
  405d5d:	48 be f2 8c 41 00 00 	movabs $0x418cf2,%rsi
  405d64:	00 00 00 
  405d67:	48 89 c7             	mov    %rax,%rdi
  405d6a:	e8 f1 c4 ff ff       	callq  402260 <_ZStlsISt11char_traitsIcEERSt13basic_ostreamIcT_ES5_PKc@plt>
  405d6f:	48 be ad 8d 41 00 00 	movabs $0x418dad,%rsi
  405d76:	00 00 00 
  405d79:	48 89 c7             	mov    %rax,%rdi
  405d7c:	e8 df c4 ff ff       	callq  402260 <_ZStlsISt11char_traitsIcEERSt13basic_ostreamIcT_ES5_PKc@plt>
  405d81:	48 be 93 8c 41 00 00 	movabs $0x418c93,%rsi
  405d88:	00 00 00 
  405d8b:	48 89 c7             	mov    %rax,%rdi
  405d8e:	e8 cd c4 ff ff       	callq  402260 <_ZStlsISt11char_traitsIcEERSt13basic_ostreamIcT_ES5_PKc@plt>
  405d93:	be 7a 00 00 00       	mov    $0x7a,%esi
  405d98:	48 89 c7             	mov    %rax,%rdi
  405d9b:	e8 20 c6 ff ff       	callq  4023c0 <_ZNSolsEi@plt>
  405da0:	48 be 80 21 40 00 00 	movabs $0x402180,%rsi
  405da7:	00 00 00 
  405daa:	48 89 c7             	mov    %rax,%rdi
  405dad:	e8 ee c4 ff ff       	callq  4022a0 <_ZNSolsEPFRSoS_E@plt>
  405db2:	48 89 45 90          	mov    %rax,-0x70(%rbp)
  405db6:	48 8b 04 25 e0 d4 61 	mov    0x61d4e0,%rax
  405dbd:	00 
  405dbe:	48 8b 4d c8          	mov    -0x38(%rbp),%rcx
  405dc2:	8b 39                	mov    (%rcx),%edi
  405dc4:	ff d0                	callq  *%rax
  405dc6:	e8 c5 c3 ff ff       	callq  402190 <glGetError@plt>
  405dcb:	89 04 25 d4 d7 61 00 	mov    %eax,0x61d7d4
  405dd2:	81 3c 25 d4 d7 61 00 	cmpl   $0x500,0x61d7d4
  405dd9:	00 05 00 00 
  405ddd:	0f 85 72 00 00 00    	jne    405e55 <_ZN7jikoLib5GLLib6ShaderINS0_14FragmentShaderENS0_11GLAllocatorINS0_12Alloc_ShaderEEEElsERKSs+0x495>
  405de3:	48 bf c0 d6 61 00 00 	movabs $0x61d6c0,%rdi
  405dea:	00 00 00 
  405ded:	48 be e2 8c 41 00 00 	movabs $0x418ce2,%rsi
  405df4:	00 00 00 
  405df7:	e8 64 c4 ff ff       	callq  402260 <_ZStlsISt11char_traitsIcEERSt13basic_ostreamIcT_ES5_PKc@plt>
  405dfc:	48 be f2 8c 41 00 00 	movabs $0x418cf2,%rsi
  405e03:	00 00 00 
  405e06:	48 89 c7             	mov    %rax,%rdi
  405e09:	e8 52 c4 ff ff       	callq  402260 <_ZStlsISt11char_traitsIcEERSt13basic_ostreamIcT_ES5_PKc@plt>
  405e0e:	48 be ad 8d 41 00 00 	movabs $0x418dad,%rsi
  405e15:	00 00 00 
  405e18:	48 89 c7             	mov    %rax,%rdi
  405e1b:	e8 40 c4 ff ff       	callq  402260 <_ZStlsISt11char_traitsIcEERSt13basic_ostreamIcT_ES5_PKc@plt>
  405e20:	48 be 93 8c 41 00 00 	movabs $0x418c93,%rsi
  405e27:	00 00 00 
  405e2a:	48 89 c7             	mov    %rax,%rdi
  405e2d:	e8 2e c4 ff ff       	callq  402260 <_ZStlsISt11char_traitsIcEERSt13basic_ostreamIcT_ES5_PKc@plt>
  405e32:	be 7c 00 00 00       	mov    $0x7c,%esi
  405e37:	48 89 c7             	mov    %rax,%rdi
  405e3a:	e8 81 c5 ff ff       	callq  4023c0 <_ZNSolsEi@plt>
  405e3f:	48 be 80 21 40 00 00 	movabs $0x402180,%rsi
  405e46:	00 00 00 
  405e49:	48 89 c7             	mov    %rax,%rdi
  405e4c:	e8 4f c4 ff ff       	callq  4022a0 <_ZNSolsEPFRSoS_E@plt>
  405e51:	48 89 45 88          	mov    %rax,-0x78(%rbp)
  405e55:	81 3c 25 d4 d7 61 00 	cmpl   $0x501,0x61d7d4
  405e5c:	01 05 00 00 
  405e60:	0f 85 72 00 00 00    	jne    405ed8 <_ZN7jikoLib5GLLib6ShaderINS0_14FragmentShaderENS0_11GLAllocatorINS0_12Alloc_ShaderEEEElsERKSs+0x518>
  405e66:	48 bf c0 d6 61 00 00 	movabs $0x61d6c0,%rdi
  405e6d:	00 00 00 
  405e70:	48 be 04 8d 41 00 00 	movabs $0x418d04,%rsi
  405e77:	00 00 00 
  405e7a:	e8 e1 c3 ff ff       	callq  402260 <_ZStlsISt11char_traitsIcEERSt13basic_ostreamIcT_ES5_PKc@plt>
  405e7f:	48 be f2 8c 41 00 00 	movabs $0x418cf2,%rsi
  405e86:	00 00 00 
  405e89:	48 89 c7             	mov    %rax,%rdi
  405e8c:	e8 cf c3 ff ff       	callq  402260 <_ZStlsISt11char_traitsIcEERSt13basic_ostreamIcT_ES5_PKc@plt>
  405e91:	48 be ad 8d 41 00 00 	movabs $0x418dad,%rsi
  405e98:	00 00 00 
  405e9b:	48 89 c7             	mov    %rax,%rdi
  405e9e:	e8 bd c3 ff ff       	callq  402260 <_ZStlsISt11char_traitsIcEERSt13basic_ostreamIcT_ES5_PKc@plt>
  405ea3:	48 be 93 8c 41 00 00 	movabs $0x418c93,%rsi
  405eaa:	00 00 00 
  405ead:	48 89 c7             	mov    %rax,%rdi
  405eb0:	e8 ab c3 ff ff       	callq  402260 <_ZStlsISt11char_traitsIcEERSt13basic_ostreamIcT_ES5_PKc@plt>
  405eb5:	be 7c 00 00 00       	mov    $0x7c,%esi
  405eba:	48 89 c7             	mov    %rax,%rdi
  405ebd:	e8 fe c4 ff ff       	callq  4023c0 <_ZNSolsEi@plt>
  405ec2:	48 be 80 21 40 00 00 	movabs $0x402180,%rsi
  405ec9:	00 00 00 
  405ecc:	48 89 c7             	mov    %rax,%rdi
  405ecf:	e8 cc c3 ff ff       	callq  4022a0 <_ZNSolsEPFRSoS_E@plt>
  405ed4:	48 89 45 80          	mov    %rax,-0x80(%rbp)
  405ed8:	81 3c 25 d4 d7 61 00 	cmpl   $0x502,0x61d7d4
  405edf:	02 05 00 00 
  405ee3:	0f 85 75 00 00 00    	jne    405f5e <_ZN7jikoLib5GLLib6ShaderINS0_14FragmentShaderENS0_11GLAllocatorINS0_12Alloc_ShaderEEEElsERKSs+0x59e>
  405ee9:	48 bf c0 d6 61 00 00 	movabs $0x61d6c0,%rdi
  405ef0:	00 00 00 
  405ef3:	48 be 15 8d 41 00 00 	movabs $0x418d15,%rsi
  405efa:	00 00 00 
  405efd:	e8 5e c3 ff ff       	callq  402260 <_ZStlsISt11char_traitsIcEERSt13basic_ostreamIcT_ES5_PKc@plt>
  405f02:	48 be f2 8c 41 00 00 	movabs $0x418cf2,%rsi
  405f09:	00 00 00 
  405f0c:	48 89 c7             	mov    %rax,%rdi
  405f0f:	e8 4c c3 ff ff       	callq  402260 <_ZStlsISt11char_traitsIcEERSt13basic_ostreamIcT_ES5_PKc@plt>
  405f14:	48 be ad 8d 41 00 00 	movabs $0x418dad,%rsi
  405f1b:	00 00 00 
  405f1e:	48 89 c7             	mov    %rax,%rdi
  405f21:	e8 3a c3 ff ff       	callq  402260 <_ZStlsISt11char_traitsIcEERSt13basic_ostreamIcT_ES5_PKc@plt>
  405f26:	48 be 93 8c 41 00 00 	movabs $0x418c93,%rsi
  405f2d:	00 00 00 
  405f30:	48 89 c7             	mov    %rax,%rdi
  405f33:	e8 28 c3 ff ff       	callq  402260 <_ZStlsISt11char_traitsIcEERSt13basic_ostreamIcT_ES5_PKc@plt>
  405f38:	be 7c 00 00 00       	mov    $0x7c,%esi
  405f3d:	48 89 c7             	mov    %rax,%rdi
  405f40:	e8 7b c4 ff ff       	callq  4023c0 <_ZNSolsEi@plt>
  405f45:	48 be 80 21 40 00 00 	movabs $0x402180,%rsi
  405f4c:	00 00 00 
  405f4f:	48 89 c7             	mov    %rax,%rdi
  405f52:	e8 49 c3 ff ff       	callq  4022a0 <_ZNSolsEPFRSoS_E@plt>
  405f57:	48 89 85 78 ff ff ff 	mov    %rax,-0x88(%rbp)
  405f5e:	81 3c 25 d4 d7 61 00 	cmpl   $0x503,0x61d7d4
  405f65:	03 05 00 00 
  405f69:	0f 85 75 00 00 00    	jne    405fe4 <_ZN7jikoLib5GLLib6ShaderINS0_14FragmentShaderENS0_11GLAllocatorINS0_12Alloc_ShaderEEEElsERKSs+0x624>
  405f6f:	48 bf c0 d6 61 00 00 	movabs $0x61d6c0,%rdi
  405f76:	00 00 00 
  405f79:	48 be 2a 8d 41 00 00 	movabs $0x418d2a,%rsi
  405f80:	00 00 00 
  405f83:	e8 d8 c2 ff ff       	callq  402260 <_ZStlsISt11char_traitsIcEERSt13basic_ostreamIcT_ES5_PKc@plt>
  405f88:	48 be f2 8c 41 00 00 	movabs $0x418cf2,%rsi
  405f8f:	00 00 00 
  405f92:	48 89 c7             	mov    %rax,%rdi
  405f95:	e8 c6 c2 ff ff       	callq  402260 <_ZStlsISt11char_traitsIcEERSt13basic_ostreamIcT_ES5_PKc@plt>
  405f9a:	48 be ad 8d 41 00 00 	movabs $0x418dad,%rsi
  405fa1:	00 00 00 
  405fa4:	48 89 c7             	mov    %rax,%rdi
  405fa7:	e8 b4 c2 ff ff       	callq  402260 <_ZStlsISt11char_traitsIcEERSt13basic_ostreamIcT_ES5_PKc@plt>
  405fac:	48 be 93 8c 41 00 00 	movabs $0x418c93,%rsi
  405fb3:	00 00 00 
  405fb6:	48 89 c7             	mov    %rax,%rdi
  405fb9:	e8 a2 c2 ff ff       	callq  402260 <_ZStlsISt11char_traitsIcEERSt13basic_ostreamIcT_ES5_PKc@plt>
  405fbe:	be 7c 00 00 00       	mov    $0x7c,%esi
  405fc3:	48 89 c7             	mov    %rax,%rdi
  405fc6:	e8 f5 c3 ff ff       	callq  4023c0 <_ZNSolsEi@plt>
  405fcb:	48 be 80 21 40 00 00 	movabs $0x402180,%rsi
  405fd2:	00 00 00 
  405fd5:	48 89 c7             	mov    %rax,%rdi
  405fd8:	e8 c3 c2 ff ff       	callq  4022a0 <_ZNSolsEPFRSoS_E@plt>
  405fdd:	48 89 85 70 ff ff ff 	mov    %rax,-0x90(%rbp)
  405fe4:	81 3c 25 d4 d7 61 00 	cmpl   $0x504,0x61d7d4
  405feb:	04 05 00 00 
  405fef:	0f 85 75 00 00 00    	jne    40606a <_ZN7jikoLib5GLLib6ShaderINS0_14FragmentShaderENS0_11GLAllocatorINS0_12Alloc_ShaderEEEElsERKSs+0x6aa>
  405ff5:	48 bf c0 d6 61 00 00 	movabs $0x61d6c0,%rdi
  405ffc:	00 00 00 
  405fff:	48 be 3c 8d 41 00 00 	movabs $0x418d3c,%rsi
  406006:	00 00 00 
  406009:	e8 52 c2 ff ff       	callq  402260 <_ZStlsISt11char_traitsIcEERSt13basic_ostreamIcT_ES5_PKc@plt>
  40600e:	48 be f2 8c 41 00 00 	movabs $0x418cf2,%rsi
  406015:	00 00 00 
  406018:	48 89 c7             	mov    %rax,%rdi
  40601b:	e8 40 c2 ff ff       	callq  402260 <_ZStlsISt11char_traitsIcEERSt13basic_ostreamIcT_ES5_PKc@plt>
  406020:	48 be ad 8d 41 00 00 	movabs $0x418dad,%rsi
  406027:	00 00 00 
  40602a:	48 89 c7             	mov    %rax,%rdi
  40602d:	e8 2e c2 ff ff       	callq  402260 <_ZStlsISt11char_traitsIcEERSt13basic_ostreamIcT_ES5_PKc@plt>
  406032:	48 be 93 8c 41 00 00 	movabs $0x418c93,%rsi
  406039:	00 00 00 
  40603c:	48 89 c7             	mov    %rax,%rdi
  40603f:	e8 1c c2 ff ff       	callq  402260 <_ZStlsISt11char_traitsIcEERSt13basic_ostreamIcT_ES5_PKc@plt>
  406044:	be 7c 00 00 00       	mov    $0x7c,%esi
  406049:	48 89 c7             	mov    %rax,%rdi
  40604c:	e8 6f c3 ff ff       	callq  4023c0 <_ZNSolsEi@plt>
  406051:	48 be 80 21 40 00 00 	movabs $0x402180,%rsi
  406058:	00 00 00 
  40605b:	48 89 c7             	mov    %rax,%rdi
  40605e:	e8 3d c2 ff ff       	callq  4022a0 <_ZNSolsEPFRSoS_E@plt>
  406063:	48 89 85 68 ff ff ff 	mov    %rax,-0x98(%rbp)
  40606a:	81 3c 25 d4 d7 61 00 	cmpl   $0x505,0x61d7d4
  406071:	05 05 00 00 
  406075:	0f 85 75 00 00 00    	jne    4060f0 <_ZN7jikoLib5GLLib6ShaderINS0_14FragmentShaderENS0_11GLAllocatorINS0_12Alloc_ShaderEEEElsERKSs+0x730>
  40607b:	48 bf c0 d6 61 00 00 	movabs $0x61d6c0,%rdi
  406082:	00 00 00 
  406085:	48 be 4f 8d 41 00 00 	movabs $0x418d4f,%rsi
  40608c:	00 00 00 
  40608f:	e8 cc c1 ff ff       	callq  402260 <_ZStlsISt11char_traitsIcEERSt13basic_ostreamIcT_ES5_PKc@plt>
  406094:	48 be f2 8c 41 00 00 	movabs $0x418cf2,%rsi
  40609b:	00 00 00 
  40609e:	48 89 c7             	mov    %rax,%rdi
  4060a1:	e8 ba c1 ff ff       	callq  402260 <_ZStlsISt11char_traitsIcEERSt13basic_ostreamIcT_ES5_PKc@plt>
  4060a6:	48 be ad 8d 41 00 00 	movabs $0x418dad,%rsi
  4060ad:	00 00 00 
  4060b0:	48 89 c7             	mov    %rax,%rdi
  4060b3:	e8 a8 c1 ff ff       	callq  402260 <_ZStlsISt11char_traitsIcEERSt13basic_ostreamIcT_ES5_PKc@plt>
  4060b8:	48 be 93 8c 41 00 00 	movabs $0x418c93,%rsi
  4060bf:	00 00 00 
  4060c2:	48 89 c7             	mov    %rax,%rdi
  4060c5:	e8 96 c1 ff ff       	callq  402260 <_ZStlsISt11char_traitsIcEERSt13basic_ostreamIcT_ES5_PKc@plt>
  4060ca:	be 7c 00 00 00       	mov    $0x7c,%esi
  4060cf:	48 89 c7             	mov    %rax,%rdi
  4060d2:	e8 e9 c2 ff ff       	callq  4023c0 <_ZNSolsEi@plt>
  4060d7:	48 be 80 21 40 00 00 	movabs $0x402180,%rsi
  4060de:	00 00 00 
  4060e1:	48 89 c7             	mov    %rax,%rdi
  4060e4:	e8 b7 c1 ff ff       	callq  4022a0 <_ZNSolsEPFRSoS_E@plt>
  4060e9:	48 89 85 60 ff ff ff 	mov    %rax,-0xa0(%rbp)
  4060f0:	81 3c 25 d4 d7 61 00 	cmpl   $0x8031,0x61d7d4
  4060f7:	31 80 00 00 
  4060fb:	0f 85 75 00 00 00    	jne    406176 <_ZN7jikoLib5GLLib6ShaderINS0_14FragmentShaderENS0_11GLAllocatorINS0_12Alloc_ShaderEEEElsERKSs+0x7b6>
  406101:	48 bf c0 d6 61 00 00 	movabs $0x61d6c0,%rdi
  406108:	00 00 00 
  40610b:	48 be 60 8d 41 00 00 	movabs $0x418d60,%rsi
  406112:	00 00 00 
  406115:	e8 46 c1 ff ff       	callq  402260 <_ZStlsISt11char_traitsIcEERSt13basic_ostreamIcT_ES5_PKc@plt>
  40611a:	48 be f2 8c 41 00 00 	movabs $0x418cf2,%rsi
  406121:	00 00 00 
  406124:	48 89 c7             	mov    %rax,%rdi
  406127:	e8 34 c1 ff ff       	callq  402260 <_ZStlsISt11char_traitsIcEERSt13basic_ostreamIcT_ES5_PKc@plt>
  40612c:	48 be ad 8d 41 00 00 	movabs $0x418dad,%rsi
  406133:	00 00 00 
  406136:	48 89 c7             	mov    %rax,%rdi
  406139:	e8 22 c1 ff ff       	callq  402260 <_ZStlsISt11char_traitsIcEERSt13basic_ostreamIcT_ES5_PKc@plt>
  40613e:	48 be 93 8c 41 00 00 	movabs $0x418c93,%rsi
  406145:	00 00 00 
  406148:	48 89 c7             	mov    %rax,%rdi
  40614b:	e8 10 c1 ff ff       	callq  402260 <_ZStlsISt11char_traitsIcEERSt13basic_ostreamIcT_ES5_PKc@plt>
  406150:	be 7c 00 00 00       	mov    $0x7c,%esi
  406155:	48 89 c7             	mov    %rax,%rdi
  406158:	e8 63 c2 ff ff       	callq  4023c0 <_ZNSolsEi@plt>
  40615d:	48 be 80 21 40 00 00 	movabs $0x402180,%rsi
  406164:	00 00 00 
  406167:	48 89 c7             	mov    %rax,%rdi
  40616a:	e8 31 c1 ff ff       	callq  4022a0 <_ZNSolsEPFRSoS_E@plt>
  40616f:	48 89 85 58 ff ff ff 	mov    %rax,-0xa8(%rbp)
  406176:	be 81 8b 00 00       	mov    $0x8b81,%esi
  40617b:	48 8d 55 e0          	lea    -0x20(%rbp),%rdx
  40617f:	48 c7 45 d0 00 00 00 	movq   $0x0,-0x30(%rbp)
  406186:	00 
  406187:	48 8b 04 25 d8 d4 61 	mov    0x61d4d8,%rax
  40618e:	00 
  40618f:	48 8b 4d c8          	mov    -0x38(%rbp),%rcx
  406193:	8b 39                	mov    (%rcx),%edi
  406195:	ff d0                	callq  *%rax
  406197:	e8 f4 bf ff ff       	callq  402190 <glGetError@plt>
  40619c:	89 04 25 d4 d7 61 00 	mov    %eax,0x61d7d4
  4061a3:	81 3c 25 d4 d7 61 00 	cmpl   $0x500,0x61d7d4
  4061aa:	00 05 00 00 
  4061ae:	0f 85 75 00 00 00    	jne    406229 <_ZN7jikoLib5GLLib6ShaderINS0_14FragmentShaderENS0_11GLAllocatorINS0_12Alloc_ShaderEEEElsERKSs+0x869>
  4061b4:	48 bf c0 d6 61 00 00 	movabs $0x61d6c0,%rdi
  4061bb:	00 00 00 
  4061be:	48 be e2 8c 41 00 00 	movabs $0x418ce2,%rsi
  4061c5:	00 00 00 
  4061c8:	e8 93 c0 ff ff       	callq  402260 <_ZStlsISt11char_traitsIcEERSt13basic_ostreamIcT_ES5_PKc@plt>
  4061cd:	48 be f2 8c 41 00 00 	movabs $0x418cf2,%rsi
  4061d4:	00 00 00 
  4061d7:	48 89 c7             	mov    %rax,%rdi
  4061da:	e8 81 c0 ff ff       	callq  402260 <_ZStlsISt11char_traitsIcEERSt13basic_ostreamIcT_ES5_PKc@plt>
  4061df:	48 be ad 8d 41 00 00 	movabs $0x418dad,%rsi
  4061e6:	00 00 00 
  4061e9:	48 89 c7             	mov    %rax,%rdi
  4061ec:	e8 6f c0 ff ff       	callq  402260 <_ZStlsISt11char_traitsIcEERSt13basic_ostreamIcT_ES5_PKc@plt>
  4061f1:	48 be 93 8c 41 00 00 	movabs $0x418c93,%rsi
  4061f8:	00 00 00 
  4061fb:	48 89 c7             	mov    %rax,%rdi
  4061fe:	e8 5d c0 ff ff       	callq  402260 <_ZStlsISt11char_traitsIcEERSt13basic_ostreamIcT_ES5_PKc@plt>
  406203:	be 82 00 00 00       	mov    $0x82,%esi
  406208:	48 89 c7             	mov    %rax,%rdi
  40620b:	e8 b0 c1 ff ff       	callq  4023c0 <_ZNSolsEi@plt>
  406210:	48 be 80 21 40 00 00 	movabs $0x402180,%rsi
  406217:	00 00 00 
  40621a:	48 89 c7             	mov    %rax,%rdi
  40621d:	e8 7e c0 ff ff       	callq  4022a0 <_ZNSolsEPFRSoS_E@plt>
  406222:	48 89 85 50 ff ff ff 	mov    %rax,-0xb0(%rbp)
  406229:	81 3c 25 d4 d7 61 00 	cmpl   $0x501,0x61d7d4
  406230:	01 05 00 00 
  406234:	0f 85 75 00 00 00    	jne    4062af <_ZN7jikoLib5GLLib6ShaderINS0_14FragmentShaderENS0_11GLAllocatorINS0_12Alloc_ShaderEEEElsERKSs+0x8ef>
  40623a:	48 bf c0 d6 61 00 00 	movabs $0x61d6c0,%rdi
  406241:	00 00 00 
  406244:	48 be 04 8d 41 00 00 	movabs $0x418d04,%rsi
  40624b:	00 00 00 
  40624e:	e8 0d c0 ff ff       	callq  402260 <_ZStlsISt11char_traitsIcEERSt13basic_ostreamIcT_ES5_PKc@plt>
  406253:	48 be f2 8c 41 00 00 	movabs $0x418cf2,%rsi
  40625a:	00 00 00 
  40625d:	48 89 c7             	mov    %rax,%rdi
  406260:	e8 fb bf ff ff       	callq  402260 <_ZStlsISt11char_traitsIcEERSt13basic_ostreamIcT_ES5_PKc@plt>
  406265:	48 be ad 8d 41 00 00 	movabs $0x418dad,%rsi
  40626c:	00 00 00 
  40626f:	48 89 c7             	mov    %rax,%rdi
  406272:	e8 e9 bf ff ff       	callq  402260 <_ZStlsISt11char_traitsIcEERSt13basic_ostreamIcT_ES5_PKc@plt>
  406277:	48 be 93 8c 41 00 00 	movabs $0x418c93,%rsi
  40627e:	00 00 00 
  406281:	48 89 c7             	mov    %rax,%rdi
  406284:	e8 d7 bf ff ff       	callq  402260 <_ZStlsISt11char_traitsIcEERSt13basic_ostreamIcT_ES5_PKc@plt>
  406289:	be 82 00 00 00       	mov    $0x82,%esi
  40628e:	48 89 c7             	mov    %rax,%rdi
  406291:	e8 2a c1 ff ff       	callq  4023c0 <_ZNSolsEi@plt>
  406296:	48 be 80 21 40 00 00 	movabs $0x402180,%rsi
  40629d:	00 00 00 
  4062a0:	48 89 c7             	mov    %rax,%rdi
  4062a3:	e8 f8 bf ff ff       	callq  4022a0 <_ZNSolsEPFRSoS_E@plt>
  4062a8:	48 89 85 48 ff ff ff 	mov    %rax,-0xb8(%rbp)
  4062af:	81 3c 25 d4 d7 61 00 	cmpl   $0x502,0x61d7d4
  4062b6:	02 05 00 00 
  4062ba:	0f 85 75 00 00 00    	jne    406335 <_ZN7jikoLib5GLLib6ShaderINS0_14FragmentShaderENS0_11GLAllocatorINS0_12Alloc_ShaderEEEElsERKSs+0x975>
  4062c0:	48 bf c0 d6 61 00 00 	movabs $0x61d6c0,%rdi
  4062c7:	00 00 00 
  4062ca:	48 be 15 8d 41 00 00 	movabs $0x418d15,%rsi
  4062d1:	00 00 00 
  4062d4:	e8 87 bf ff ff       	callq  402260 <_ZStlsISt11char_traitsIcEERSt13basic_ostreamIcT_ES5_PKc@plt>
  4062d9:	48 be f2 8c 41 00 00 	movabs $0x418cf2,%rsi
  4062e0:	00 00 00 
  4062e3:	48 89 c7             	mov    %rax,%rdi
  4062e6:	e8 75 bf ff ff       	callq  402260 <_ZStlsISt11char_traitsIcEERSt13basic_ostreamIcT_ES5_PKc@plt>
  4062eb:	48 be ad 8d 41 00 00 	movabs $0x418dad,%rsi
  4062f2:	00 00 00 
  4062f5:	48 89 c7             	mov    %rax,%rdi
  4062f8:	e8 63 bf ff ff       	callq  402260 <_ZStlsISt11char_traitsIcEERSt13basic_ostreamIcT_ES5_PKc@plt>
  4062fd:	48 be 93 8c 41 00 00 	movabs $0x418c93,%rsi
  406304:	00 00 00 
  406307:	48 89 c7             	mov    %rax,%rdi
  40630a:	e8 51 bf ff ff       	callq  402260 <_ZStlsISt11char_traitsIcEERSt13basic_ostreamIcT_ES5_PKc@plt>
  40630f:	be 82 00 00 00       	mov    $0x82,%esi
  406314:	48 89 c7             	mov    %rax,%rdi
  406317:	e8 a4 c0 ff ff       	callq  4023c0 <_ZNSolsEi@plt>
  40631c:	48 be 80 21 40 00 00 	movabs $0x402180,%rsi
  406323:	00 00 00 
  406326:	48 89 c7             	mov    %rax,%rdi
  406329:	e8 72 bf ff ff       	callq  4022a0 <_ZNSolsEPFRSoS_E@plt>
  40632e:	48 89 85 40 ff ff ff 	mov    %rax,-0xc0(%rbp)
  406335:	81 3c 25 d4 d7 61 00 	cmpl   $0x503,0x61d7d4
  40633c:	03 05 00 00 
  406340:	0f 85 75 00 00 00    	jne    4063bb <_ZN7jikoLib5GLLib6ShaderINS0_14FragmentShaderENS0_11GLAllocatorINS0_12Alloc_ShaderEEEElsERKSs+0x9fb>
  406346:	48 bf c0 d6 61 00 00 	movabs $0x61d6c0,%rdi
  40634d:	00 00 00 
  406350:	48 be 2a 8d 41 00 00 	movabs $0x418d2a,%rsi
  406357:	00 00 00 
  40635a:	e8 01 bf ff ff       	callq  402260 <_ZStlsISt11char_traitsIcEERSt13basic_ostreamIcT_ES5_PKc@plt>
  40635f:	48 be f2 8c 41 00 00 	movabs $0x418cf2,%rsi
  406366:	00 00 00 
  406369:	48 89 c7             	mov    %rax,%rdi
  40636c:	e8 ef be ff ff       	callq  402260 <_ZStlsISt11char_traitsIcEERSt13basic_ostreamIcT_ES5_PKc@plt>
  406371:	48 be ad 8d 41 00 00 	movabs $0x418dad,%rsi
  406378:	00 00 00 
  40637b:	48 89 c7             	mov    %rax,%rdi
  40637e:	e8 dd be ff ff       	callq  402260 <_ZStlsISt11char_traitsIcEERSt13basic_ostreamIcT_ES5_PKc@plt>
  406383:	48 be 93 8c 41 00 00 	movabs $0x418c93,%rsi
  40638a:	00 00 00 
  40638d:	48 89 c7             	mov    %rax,%rdi
  406390:	e8 cb be ff ff       	callq  402260 <_ZStlsISt11char_traitsIcEERSt13basic_ostreamIcT_ES5_PKc@plt>
  406395:	be 82 00 00 00       	mov    $0x82,%esi
  40639a:	48 89 c7             	mov    %rax,%rdi
  40639d:	e8 1e c0 ff ff       	callq  4023c0 <_ZNSolsEi@plt>
  4063a2:	48 be 80 21 40 00 00 	movabs $0x402180,%rsi
  4063a9:	00 00 00 
  4063ac:	48 89 c7             	mov    %rax,%rdi
  4063af:	e8 ec be ff ff       	callq  4022a0 <_ZNSolsEPFRSoS_E@plt>
  4063b4:	48 89 85 38 ff ff ff 	mov    %rax,-0xc8(%rbp)
  4063bb:	81 3c 25 d4 d7 61 00 	cmpl   $0x504,0x61d7d4
  4063c2:	04 05 00 00 
  4063c6:	0f 85 75 00 00 00    	jne    406441 <_ZN7jikoLib5GLLib6ShaderINS0_14FragmentShaderENS0_11GLAllocatorINS0_12Alloc_ShaderEEEElsERKSs+0xa81>
  4063cc:	48 bf c0 d6 61 00 00 	movabs $0x61d6c0,%rdi
  4063d3:	00 00 00 
  4063d6:	48 be 3c 8d 41 00 00 	movabs $0x418d3c,%rsi
  4063dd:	00 00 00 
  4063e0:	e8 7b be ff ff       	callq  402260 <_ZStlsISt11char_traitsIcEERSt13basic_ostreamIcT_ES5_PKc@plt>
  4063e5:	48 be f2 8c 41 00 00 	movabs $0x418cf2,%rsi
  4063ec:	00 00 00 
  4063ef:	48 89 c7             	mov    %rax,%rdi
  4063f2:	e8 69 be ff ff       	callq  402260 <_ZStlsISt11char_traitsIcEERSt13basic_ostreamIcT_ES5_PKc@plt>
  4063f7:	48 be ad 8d 41 00 00 	movabs $0x418dad,%rsi
  4063fe:	00 00 00 
  406401:	48 89 c7             	mov    %rax,%rdi
  406404:	e8 57 be ff ff       	callq  402260 <_ZStlsISt11char_traitsIcEERSt13basic_ostreamIcT_ES5_PKc@plt>
  406409:	48 be 93 8c 41 00 00 	movabs $0x418c93,%rsi
  406410:	00 00 00 
  406413:	48 89 c7             	mov    %rax,%rdi
  406416:	e8 45 be ff ff       	callq  402260 <_ZStlsISt11char_traitsIcEERSt13basic_ostreamIcT_ES5_PKc@plt>
  40641b:	be 82 00 00 00       	mov    $0x82,%esi
  406420:	48 89 c7             	mov    %rax,%rdi
  406423:	e8 98 bf ff ff       	callq  4023c0 <_ZNSolsEi@plt>
  406428:	48 be 80 21 40 00 00 	movabs $0x402180,%rsi
  40642f:	00 00 00 
  406432:	48 89 c7             	mov    %rax,%rdi
  406435:	e8 66 be ff ff       	callq  4022a0 <_ZNSolsEPFRSoS_E@plt>
  40643a:	48 89 85 30 ff ff ff 	mov    %rax,-0xd0(%rbp)
  406441:	81 3c 25 d4 d7 61 00 	cmpl   $0x505,0x61d7d4
  406448:	05 05 00 00 
  40644c:	0f 85 75 00 00 00    	jne    4064c7 <_ZN7jikoLib5GLLib6ShaderINS0_14FragmentShaderENS0_11GLAllocatorINS0_12Alloc_ShaderEEEElsERKSs+0xb07>
  406452:	48 bf c0 d6 61 00 00 	movabs $0x61d6c0,%rdi
  406459:	00 00 00 
  40645c:	48 be 4f 8d 41 00 00 	movabs $0x418d4f,%rsi
  406463:	00 00 00 
  406466:	e8 f5 bd ff ff       	callq  402260 <_ZStlsISt11char_traitsIcEERSt13basic_ostreamIcT_ES5_PKc@plt>
  40646b:	48 be f2 8c 41 00 00 	movabs $0x418cf2,%rsi
  406472:	00 00 00 
  406475:	48 89 c7             	mov    %rax,%rdi
  406478:	e8 e3 bd ff ff       	callq  402260 <_ZStlsISt11char_traitsIcEERSt13basic_ostreamIcT_ES5_PKc@plt>
  40647d:	48 be ad 8d 41 00 00 	movabs $0x418dad,%rsi
  406484:	00 00 00 
  406487:	48 89 c7             	mov    %rax,%rdi
  40648a:	e8 d1 bd ff ff       	callq  402260 <_ZStlsISt11char_traitsIcEERSt13basic_ostreamIcT_ES5_PKc@plt>
  40648f:	48 be 93 8c 41 00 00 	movabs $0x418c93,%rsi
  406496:	00 00 00 
  406499:	48 89 c7             	mov    %rax,%rdi
  40649c:	e8 bf bd ff ff       	callq  402260 <_ZStlsISt11char_traitsIcEERSt13basic_ostreamIcT_ES5_PKc@plt>
  4064a1:	be 82 00 00 00       	mov    $0x82,%esi
  4064a6:	48 89 c7             	mov    %rax,%rdi
  4064a9:	e8 12 bf ff ff       	callq  4023c0 <_ZNSolsEi@plt>
  4064ae:	48 be 80 21 40 00 00 	movabs $0x402180,%rsi
  4064b5:	00 00 00 
  4064b8:	48 89 c7             	mov    %rax,%rdi
  4064bb:	e8 e0 bd ff ff       	callq  4022a0 <_ZNSolsEPFRSoS_E@plt>
  4064c0:	48 89 85 28 ff ff ff 	mov    %rax,-0xd8(%rbp)
  4064c7:	81 3c 25 d4 d7 61 00 	cmpl   $0x8031,0x61d7d4
  4064ce:	31 80 00 00 
  4064d2:	0f 85 75 00 00 00    	jne    40654d <_ZN7jikoLib5GLLib6ShaderINS0_14FragmentShaderENS0_11GLAllocatorINS0_12Alloc_ShaderEEEElsERKSs+0xb8d>
  4064d8:	48 bf c0 d6 61 00 00 	movabs $0x61d6c0,%rdi
  4064df:	00 00 00 
  4064e2:	48 be 60 8d 41 00 00 	movabs $0x418d60,%rsi
  4064e9:	00 00 00 
  4064ec:	e8 6f bd ff ff       	callq  402260 <_ZStlsISt11char_traitsIcEERSt13basic_ostreamIcT_ES5_PKc@plt>
  4064f1:	48 be f2 8c 41 00 00 	movabs $0x418cf2,%rsi
  4064f8:	00 00 00 
  4064fb:	48 89 c7             	mov    %rax,%rdi
  4064fe:	e8 5d bd ff ff       	callq  402260 <_ZStlsISt11char_traitsIcEERSt13basic_ostreamIcT_ES5_PKc@plt>
  406503:	48 be ad 8d 41 00 00 	movabs $0x418dad,%rsi
  40650a:	00 00 00 
  40650d:	48 89 c7             	mov    %rax,%rdi
  406510:	e8 4b bd ff ff       	callq  402260 <_ZStlsISt11char_traitsIcEERSt13basic_ostreamIcT_ES5_PKc@plt>
  406515:	48 be 93 8c 41 00 00 	movabs $0x418c93,%rsi
  40651c:	00 00 00 
  40651f:	48 89 c7             	mov    %rax,%rdi
  406522:	e8 39 bd ff ff       	callq  402260 <_ZStlsISt11char_traitsIcEERSt13basic_ostreamIcT_ES5_PKc@plt>
  406527:	be 82 00 00 00       	mov    $0x82,%esi
  40652c:	48 89 c7             	mov    %rax,%rdi
  40652f:	e8 8c be ff ff       	callq  4023c0 <_ZNSolsEi@plt>
  406534:	48 be 80 21 40 00 00 	movabs $0x402180,%rsi
  40653b:	00 00 00 
  40653e:	48 89 c7             	mov    %rax,%rdi
  406541:	e8 5a bd ff ff       	callq  4022a0 <_ZNSolsEPFRSoS_E@plt>
  406546:	48 89 85 20 ff ff ff 	mov    %rax,-0xe0(%rbp)
  40654d:	81 7d e0 00 00 00 00 	cmpl   $0x0,-0x20(%rbp)
  406554:	0f 85 9f 08 00 00    	jne    406df9 <_ZN7jikoLib5GLLib6ShaderINS0_14FragmentShaderENS0_11GLAllocatorINS0_12Alloc_ShaderEEEElsERKSs+0x1439>
  40655a:	48 bf c0 d6 61 00 00 	movabs $0x61d6c0,%rdi
  406561:	00 00 00 
  406564:	48 be c1 8f 41 00 00 	movabs $0x418fc1,%rsi
  40656b:	00 00 00 
  40656e:	e8 ed bc ff ff       	callq  402260 <_ZStlsISt11char_traitsIcEERSt13basic_ostreamIcT_ES5_PKc@plt>
  406573:	48 8b 75 c8          	mov    -0x38(%rbp),%rsi
  406577:	8b 36                	mov    (%rsi),%esi
  406579:	48 89 c7             	mov    %rax,%rdi
  40657c:	e8 6f bd ff ff       	callq  4022f0 <_ZNSolsEj@plt>
  406581:	48 be 92 8f 41 00 00 	movabs $0x418f92,%rsi
  406588:	00 00 00 
  40658b:	48 89 c7             	mov    %rax,%rdi
  40658e:	e8 cd bc ff ff       	callq  402260 <_ZStlsISt11char_traitsIcEERSt13basic_ostreamIcT_ES5_PKc@plt>
  406593:	48 be 80 21 40 00 00 	movabs $0x402180,%rsi
  40659a:	00 00 00 
  40659d:	48 89 c7             	mov    %rax,%rdi
  4065a0:	e8 fb bc ff ff       	callq  4022a0 <_ZNSolsEPFRSoS_E@plt>
  4065a5:	be 84 8b 00 00       	mov    $0x8b84,%esi
  4065aa:	48 8d 55 dc          	lea    -0x24(%rbp),%rdx
  4065ae:	48 8b 3c 25 d8 d4 61 	mov    0x61d4d8,%rdi
  4065b5:	00 
  4065b6:	48 8b 4d c8          	mov    -0x38(%rbp),%rcx
  4065ba:	44 8b 01             	mov    (%rcx),%r8d
  4065bd:	48 89 bd 18 ff ff ff 	mov    %rdi,-0xe8(%rbp)
  4065c4:	44 89 c7             	mov    %r8d,%edi
  4065c7:	4c 8b 8d 18 ff ff ff 	mov    -0xe8(%rbp),%r9
  4065ce:	48 89 85 10 ff ff ff 	mov    %rax,-0xf0(%rbp)
  4065d5:	41 ff d1             	callq  *%r9
  4065d8:	e8 b3 bb ff ff       	callq  402190 <glGetError@plt>
  4065dd:	89 04 25 d4 d7 61 00 	mov    %eax,0x61d7d4
  4065e4:	81 3c 25 d4 d7 61 00 	cmpl   $0x500,0x61d7d4
  4065eb:	00 05 00 00 
  4065ef:	0f 85 75 00 00 00    	jne    40666a <_ZN7jikoLib5GLLib6ShaderINS0_14FragmentShaderENS0_11GLAllocatorINS0_12Alloc_ShaderEEEElsERKSs+0xcaa>
  4065f5:	48 bf c0 d6 61 00 00 	movabs $0x61d6c0,%rdi
  4065fc:	00 00 00 
  4065ff:	48 be e2 8c 41 00 00 	movabs $0x418ce2,%rsi
  406606:	00 00 00 
  406609:	e8 52 bc ff ff       	callq  402260 <_ZStlsISt11char_traitsIcEERSt13basic_ostreamIcT_ES5_PKc@plt>
  40660e:	48 be f2 8c 41 00 00 	movabs $0x418cf2,%rsi
  406615:	00 00 00 
  406618:	48 89 c7             	mov    %rax,%rdi
  40661b:	e8 40 bc ff ff       	callq  402260 <_ZStlsISt11char_traitsIcEERSt13basic_ostreamIcT_ES5_PKc@plt>
  406620:	48 be ad 8d 41 00 00 	movabs $0x418dad,%rsi
  406627:	00 00 00 
  40662a:	48 89 c7             	mov    %rax,%rdi
  40662d:	e8 2e bc ff ff       	callq  402260 <_ZStlsISt11char_traitsIcEERSt13basic_ostreamIcT_ES5_PKc@plt>
  406632:	48 be 93 8c 41 00 00 	movabs $0x418c93,%rsi
  406639:	00 00 00 
  40663c:	48 89 c7             	mov    %rax,%rdi
  40663f:	e8 1c bc ff ff       	callq  402260 <_ZStlsISt11char_traitsIcEERSt13basic_ostreamIcT_ES5_PKc@plt>
  406644:	be 89 00 00 00       	mov    $0x89,%esi
  406649:	48 89 c7             	mov    %rax,%rdi
  40664c:	e8 6f bd ff ff       	callq  4023c0 <_ZNSolsEi@plt>
  406651:	48 be 80 21 40 00 00 	movabs $0x402180,%rsi
  406658:	00 00 00 
  40665b:	48 89 c7             	mov    %rax,%rdi
  40665e:	e8 3d bc ff ff       	callq  4022a0 <_ZNSolsEPFRSoS_E@plt>
  406663:	48 89 85 08 ff ff ff 	mov    %rax,-0xf8(%rbp)
  40666a:	81 3c 25 d4 d7 61 00 	cmpl   $0x501,0x61d7d4
  406671:	01 05 00 00 
  406675:	0f 85 75 00 00 00    	jne    4066f0 <_ZN7jikoLib5GLLib6ShaderINS0_14FragmentShaderENS0_11GLAllocatorINS0_12Alloc_ShaderEEEElsERKSs+0xd30>
  40667b:	48 bf c0 d6 61 00 00 	movabs $0x61d6c0,%rdi
  406682:	00 00 00 
  406685:	48 be 04 8d 41 00 00 	movabs $0x418d04,%rsi
  40668c:	00 00 00 
  40668f:	e8 cc bb ff ff       	callq  402260 <_ZStlsISt11char_traitsIcEERSt13basic_ostreamIcT_ES5_PKc@plt>
  406694:	48 be f2 8c 41 00 00 	movabs $0x418cf2,%rsi
  40669b:	00 00 00 
  40669e:	48 89 c7             	mov    %rax,%rdi
  4066a1:	e8 ba bb ff ff       	callq  402260 <_ZStlsISt11char_traitsIcEERSt13basic_ostreamIcT_ES5_PKc@plt>
  4066a6:	48 be ad 8d 41 00 00 	movabs $0x418dad,%rsi
  4066ad:	00 00 00 
  4066b0:	48 89 c7             	mov    %rax,%rdi
  4066b3:	e8 a8 bb ff ff       	callq  402260 <_ZStlsISt11char_traitsIcEERSt13basic_ostreamIcT_ES5_PKc@plt>
  4066b8:	48 be 93 8c 41 00 00 	movabs $0x418c93,%rsi
  4066bf:	00 00 00 
  4066c2:	48 89 c7             	mov    %rax,%rdi
  4066c5:	e8 96 bb ff ff       	callq  402260 <_ZStlsISt11char_traitsIcEERSt13basic_ostreamIcT_ES5_PKc@plt>
  4066ca:	be 89 00 00 00       	mov    $0x89,%esi
  4066cf:	48 89 c7             	mov    %rax,%rdi
  4066d2:	e8 e9 bc ff ff       	callq  4023c0 <_ZNSolsEi@plt>
  4066d7:	48 be 80 21 40 00 00 	movabs $0x402180,%rsi
  4066de:	00 00 00 
  4066e1:	48 89 c7             	mov    %rax,%rdi
  4066e4:	e8 b7 bb ff ff       	callq  4022a0 <_ZNSolsEPFRSoS_E@plt>
  4066e9:	48 89 85 00 ff ff ff 	mov    %rax,-0x100(%rbp)
  4066f0:	81 3c 25 d4 d7 61 00 	cmpl   $0x502,0x61d7d4
  4066f7:	02 05 00 00 
  4066fb:	0f 85 75 00 00 00    	jne    406776 <_ZN7jikoLib5GLLib6ShaderINS0_14FragmentShaderENS0_11GLAllocatorINS0_12Alloc_ShaderEEEElsERKSs+0xdb6>
  406701:	48 bf c0 d6 61 00 00 	movabs $0x61d6c0,%rdi
  406708:	00 00 00 
  40670b:	48 be 15 8d 41 00 00 	movabs $0x418d15,%rsi
  406712:	00 00 00 
  406715:	e8 46 bb ff ff       	callq  402260 <_ZStlsISt11char_traitsIcEERSt13basic_ostreamIcT_ES5_PKc@plt>
  40671a:	48 be f2 8c 41 00 00 	movabs $0x418cf2,%rsi
  406721:	00 00 00 
  406724:	48 89 c7             	mov    %rax,%rdi
  406727:	e8 34 bb ff ff       	callq  402260 <_ZStlsISt11char_traitsIcEERSt13basic_ostreamIcT_ES5_PKc@plt>
  40672c:	48 be ad 8d 41 00 00 	movabs $0x418dad,%rsi
  406733:	00 00 00 
  406736:	48 89 c7             	mov    %rax,%rdi
  406739:	e8 22 bb ff ff       	callq  402260 <_ZStlsISt11char_traitsIcEERSt13basic_ostreamIcT_ES5_PKc@plt>
  40673e:	48 be 93 8c 41 00 00 	movabs $0x418c93,%rsi
  406745:	00 00 00 
  406748:	48 89 c7             	mov    %rax,%rdi
  40674b:	e8 10 bb ff ff       	callq  402260 <_ZStlsISt11char_traitsIcEERSt13basic_ostreamIcT_ES5_PKc@plt>
  406750:	be 89 00 00 00       	mov    $0x89,%esi
  406755:	48 89 c7             	mov    %rax,%rdi
  406758:	e8 63 bc ff ff       	callq  4023c0 <_ZNSolsEi@plt>
  40675d:	48 be 80 21 40 00 00 	movabs $0x402180,%rsi
  406764:	00 00 00 
  406767:	48 89 c7             	mov    %rax,%rdi
  40676a:	e8 31 bb ff ff       	callq  4022a0 <_ZNSolsEPFRSoS_E@plt>
  40676f:	48 89 85 f8 fe ff ff 	mov    %rax,-0x108(%rbp)
  406776:	81 3c 25 d4 d7 61 00 	cmpl   $0x503,0x61d7d4
  40677d:	03 05 00 00 
  406781:	0f 85 75 00 00 00    	jne    4067fc <_ZN7jikoLib5GLLib6ShaderINS0_14FragmentShaderENS0_11GLAllocatorINS0_12Alloc_ShaderEEEElsERKSs+0xe3c>
  406787:	48 bf c0 d6 61 00 00 	movabs $0x61d6c0,%rdi
  40678e:	00 00 00 
  406791:	48 be 2a 8d 41 00 00 	movabs $0x418d2a,%rsi
  406798:	00 00 00 
  40679b:	e8 c0 ba ff ff       	callq  402260 <_ZStlsISt11char_traitsIcEERSt13basic_ostreamIcT_ES5_PKc@plt>
  4067a0:	48 be f2 8c 41 00 00 	movabs $0x418cf2,%rsi
  4067a7:	00 00 00 
  4067aa:	48 89 c7             	mov    %rax,%rdi
  4067ad:	e8 ae ba ff ff       	callq  402260 <_ZStlsISt11char_traitsIcEERSt13basic_ostreamIcT_ES5_PKc@plt>
  4067b2:	48 be ad 8d 41 00 00 	movabs $0x418dad,%rsi
  4067b9:	00 00 00 
  4067bc:	48 89 c7             	mov    %rax,%rdi
  4067bf:	e8 9c ba ff ff       	callq  402260 <_ZStlsISt11char_traitsIcEERSt13basic_ostreamIcT_ES5_PKc@plt>
  4067c4:	48 be 93 8c 41 00 00 	movabs $0x418c93,%rsi
  4067cb:	00 00 00 
  4067ce:	48 89 c7             	mov    %rax,%rdi
  4067d1:	e8 8a ba ff ff       	callq  402260 <_ZStlsISt11char_traitsIcEERSt13basic_ostreamIcT_ES5_PKc@plt>
  4067d6:	be 89 00 00 00       	mov    $0x89,%esi
  4067db:	48 89 c7             	mov    %rax,%rdi
  4067de:	e8 dd bb ff ff       	callq  4023c0 <_ZNSolsEi@plt>
  4067e3:	48 be 80 21 40 00 00 	movabs $0x402180,%rsi
  4067ea:	00 00 00 
  4067ed:	48 89 c7             	mov    %rax,%rdi
  4067f0:	e8 ab ba ff ff       	callq  4022a0 <_ZNSolsEPFRSoS_E@plt>
  4067f5:	48 89 85 f0 fe ff ff 	mov    %rax,-0x110(%rbp)
  4067fc:	81 3c 25 d4 d7 61 00 	cmpl   $0x504,0x61d7d4
  406803:	04 05 00 00 
  406807:	0f 85 75 00 00 00    	jne    406882 <_ZN7jikoLib5GLLib6ShaderINS0_14FragmentShaderENS0_11GLAllocatorINS0_12Alloc_ShaderEEEElsERKSs+0xec2>
  40680d:	48 bf c0 d6 61 00 00 	movabs $0x61d6c0,%rdi
  406814:	00 00 00 
  406817:	48 be 3c 8d 41 00 00 	movabs $0x418d3c,%rsi
  40681e:	00 00 00 
  406821:	e8 3a ba ff ff       	callq  402260 <_ZStlsISt11char_traitsIcEERSt13basic_ostreamIcT_ES5_PKc@plt>
  406826:	48 be f2 8c 41 00 00 	movabs $0x418cf2,%rsi
  40682d:	00 00 00 
  406830:	48 89 c7             	mov    %rax,%rdi
  406833:	e8 28 ba ff ff       	callq  402260 <_ZStlsISt11char_traitsIcEERSt13basic_ostreamIcT_ES5_PKc@plt>
  406838:	48 be ad 8d 41 00 00 	movabs $0x418dad,%rsi
  40683f:	00 00 00 
  406842:	48 89 c7             	mov    %rax,%rdi
  406845:	e8 16 ba ff ff       	callq  402260 <_ZStlsISt11char_traitsIcEERSt13basic_ostreamIcT_ES5_PKc@plt>
  40684a:	48 be 93 8c 41 00 00 	movabs $0x418c93,%rsi
  406851:	00 00 00 
  406854:	48 89 c7             	mov    %rax,%rdi
  406857:	e8 04 ba ff ff       	callq  402260 <_ZStlsISt11char_traitsIcEERSt13basic_ostreamIcT_ES5_PKc@plt>
  40685c:	be 89 00 00 00       	mov    $0x89,%esi
  406861:	48 89 c7             	mov    %rax,%rdi
  406864:	e8 57 bb ff ff       	callq  4023c0 <_ZNSolsEi@plt>
  406869:	48 be 80 21 40 00 00 	movabs $0x402180,%rsi
  406870:	00 00 00 
  406873:	48 89 c7             	mov    %rax,%rdi
  406876:	e8 25 ba ff ff       	callq  4022a0 <_ZNSolsEPFRSoS_E@plt>
  40687b:	48 89 85 e8 fe ff ff 	mov    %rax,-0x118(%rbp)
  406882:	81 3c 25 d4 d7 61 00 	cmpl   $0x505,0x61d7d4
  406889:	05 05 00 00 
  40688d:	0f 85 75 00 00 00    	jne    406908 <_ZN7jikoLib5GLLib6ShaderINS0_14FragmentShaderENS0_11GLAllocatorINS0_12Alloc_ShaderEEEElsERKSs+0xf48>
  406893:	48 bf c0 d6 61 00 00 	movabs $0x61d6c0,%rdi
  40689a:	00 00 00 
  40689d:	48 be 4f 8d 41 00 00 	movabs $0x418d4f,%rsi
  4068a4:	00 00 00 
  4068a7:	e8 b4 b9 ff ff       	callq  402260 <_ZStlsISt11char_traitsIcEERSt13basic_ostreamIcT_ES5_PKc@plt>
  4068ac:	48 be f2 8c 41 00 00 	movabs $0x418cf2,%rsi
  4068b3:	00 00 00 
  4068b6:	48 89 c7             	mov    %rax,%rdi
  4068b9:	e8 a2 b9 ff ff       	callq  402260 <_ZStlsISt11char_traitsIcEERSt13basic_ostreamIcT_ES5_PKc@plt>
  4068be:	48 be ad 8d 41 00 00 	movabs $0x418dad,%rsi
  4068c5:	00 00 00 
  4068c8:	48 89 c7             	mov    %rax,%rdi
  4068cb:	e8 90 b9 ff ff       	callq  402260 <_ZStlsISt11char_traitsIcEERSt13basic_ostreamIcT_ES5_PKc@plt>
  4068d0:	48 be 93 8c 41 00 00 	movabs $0x418c93,%rsi
  4068d7:	00 00 00 
  4068da:	48 89 c7             	mov    %rax,%rdi
  4068dd:	e8 7e b9 ff ff       	callq  402260 <_ZStlsISt11char_traitsIcEERSt13basic_ostreamIcT_ES5_PKc@plt>
  4068e2:	be 89 00 00 00       	mov    $0x89,%esi
  4068e7:	48 89 c7             	mov    %rax,%rdi
  4068ea:	e8 d1 ba ff ff       	callq  4023c0 <_ZNSolsEi@plt>
  4068ef:	48 be 80 21 40 00 00 	movabs $0x402180,%rsi
  4068f6:	00 00 00 
  4068f9:	48 89 c7             	mov    %rax,%rdi
  4068fc:	e8 9f b9 ff ff       	callq  4022a0 <_ZNSolsEPFRSoS_E@plt>
  406901:	48 89 85 e0 fe ff ff 	mov    %rax,-0x120(%rbp)
  406908:	81 3c 25 d4 d7 61 00 	cmpl   $0x8031,0x61d7d4
  40690f:	31 80 00 00 
  406913:	0f 85 75 00 00 00    	jne    40698e <_ZN7jikoLib5GLLib6ShaderINS0_14FragmentShaderENS0_11GLAllocatorINS0_12Alloc_ShaderEEEElsERKSs+0xfce>
  406919:	48 bf c0 d6 61 00 00 	movabs $0x61d6c0,%rdi
  406920:	00 00 00 
  406923:	48 be 60 8d 41 00 00 	movabs $0x418d60,%rsi
  40692a:	00 00 00 
  40692d:	e8 2e b9 ff ff       	callq  402260 <_ZStlsISt11char_traitsIcEERSt13basic_ostreamIcT_ES5_PKc@plt>
  406932:	48 be f2 8c 41 00 00 	movabs $0x418cf2,%rsi
  406939:	00 00 00 
  40693c:	48 89 c7             	mov    %rax,%rdi
  40693f:	e8 1c b9 ff ff       	callq  402260 <_ZStlsISt11char_traitsIcEERSt13basic_ostreamIcT_ES5_PKc@plt>
  406944:	48 be ad 8d 41 00 00 	movabs $0x418dad,%rsi
  40694b:	00 00 00 
  40694e:	48 89 c7             	mov    %rax,%rdi
  406951:	e8 0a b9 ff ff       	callq  402260 <_ZStlsISt11char_traitsIcEERSt13basic_ostreamIcT_ES5_PKc@plt>
  406956:	48 be 93 8c 41 00 00 	movabs $0x418c93,%rsi
  40695d:	00 00 00 
  406960:	48 89 c7             	mov    %rax,%rdi
  406963:	e8 f8 b8 ff ff       	callq  402260 <_ZStlsISt11char_traitsIcEERSt13basic_ostreamIcT_ES5_PKc@plt>
  406968:	be 89 00 00 00       	mov    $0x89,%esi
  40696d:	48 89 c7             	mov    %rax,%rdi
  406970:	e8 4b ba ff ff       	callq  4023c0 <_ZNSolsEi@plt>
  406975:	48 be 80 21 40 00 00 	movabs $0x402180,%rsi
  40697c:	00 00 00 
  40697f:	48 89 c7             	mov    %rax,%rdi
  406982:	e8 19 b9 ff ff       	callq  4022a0 <_ZNSolsEPFRSoS_E@plt>
  406987:	48 89 85 d8 fe ff ff 	mov    %rax,-0x128(%rbp)
  40698e:	81 7d dc 00 00 00 00 	cmpl   $0x0,-0x24(%rbp)
  406995:	0f 8e 39 04 00 00    	jle    406dd4 <_ZN7jikoLib5GLLib6ShaderINS0_14FragmentShaderENS0_11GLAllocatorINS0_12Alloc_ShaderEEEElsERKSs+0x1414>
  40699b:	48 b8 ff ff ff ff ff 	movabs $0xffffffffffffffff,%rax
  4069a2:	ff ff ff 
  4069a5:	48 63 4d dc          	movslq -0x24(%rbp),%rcx
  4069a9:	48 81 f9 00 00 00 00 	cmp    $0x0,%rcx
  4069b0:	48 0f 4c c8          	cmovl  %rax,%rcx
  4069b4:	48 89 cf             	mov    %rcx,%rdi
  4069b7:	e8 f4 b6 ff ff       	callq  4020b0 <_Znam@plt>
  4069bc:	48 8d 55 d8          	lea    -0x28(%rbp),%rdx
  4069c0:	48 89 45 d0          	mov    %rax,-0x30(%rbp)
  4069c4:	48 8b 04 25 18 d5 61 	mov    0x61d518,%rax
  4069cb:	00 
  4069cc:	48 8b 4d c8          	mov    -0x38(%rbp),%rcx
  4069d0:	8b 39                	mov    (%rcx),%edi
  4069d2:	8b 75 dc             	mov    -0x24(%rbp),%esi
  4069d5:	48 8b 4d d0          	mov    -0x30(%rbp),%rcx
  4069d9:	ff d0                	callq  *%rax
  4069db:	e8 b0 b7 ff ff       	callq  402190 <glGetError@plt>
  4069e0:	89 04 25 d4 d7 61 00 	mov    %eax,0x61d7d4
  4069e7:	81 3c 25 d4 d7 61 00 	cmpl   $0x500,0x61d7d4
  4069ee:	00 05 00 00 
  4069f2:	0f 85 75 00 00 00    	jne    406a6d <_ZN7jikoLib5GLLib6ShaderINS0_14FragmentShaderENS0_11GLAllocatorINS0_12Alloc_ShaderEEEElsERKSs+0x10ad>
  4069f8:	48 bf c0 d6 61 00 00 	movabs $0x61d6c0,%rdi
  4069ff:	00 00 00 
  406a02:	48 be e2 8c 41 00 00 	movabs $0x418ce2,%rsi
  406a09:	00 00 00 
  406a0c:	e8 4f b8 ff ff       	callq  402260 <_ZStlsISt11char_traitsIcEERSt13basic_ostreamIcT_ES5_PKc@plt>
  406a11:	48 be f2 8c 41 00 00 	movabs $0x418cf2,%rsi
  406a18:	00 00 00 
  406a1b:	48 89 c7             	mov    %rax,%rdi
  406a1e:	e8 3d b8 ff ff       	callq  402260 <_ZStlsISt11char_traitsIcEERSt13basic_ostreamIcT_ES5_PKc@plt>
  406a23:	48 be ad 8d 41 00 00 	movabs $0x418dad,%rsi
  406a2a:	00 00 00 
  406a2d:	48 89 c7             	mov    %rax,%rdi
  406a30:	e8 2b b8 ff ff       	callq  402260 <_ZStlsISt11char_traitsIcEERSt13basic_ostreamIcT_ES5_PKc@plt>
  406a35:	48 be 93 8c 41 00 00 	movabs $0x418c93,%rsi
  406a3c:	00 00 00 
  406a3f:	48 89 c7             	mov    %rax,%rdi
  406a42:	e8 19 b8 ff ff       	callq  402260 <_ZStlsISt11char_traitsIcEERSt13basic_ostreamIcT_ES5_PKc@plt>
  406a47:	be 8e 00 00 00       	mov    $0x8e,%esi
  406a4c:	48 89 c7             	mov    %rax,%rdi
  406a4f:	e8 6c b9 ff ff       	callq  4023c0 <_ZNSolsEi@plt>
  406a54:	48 be 80 21 40 00 00 	movabs $0x402180,%rsi
  406a5b:	00 00 00 
  406a5e:	48 89 c7             	mov    %rax,%rdi
  406a61:	e8 3a b8 ff ff       	callq  4022a0 <_ZNSolsEPFRSoS_E@plt>
  406a66:	48 89 85 d0 fe ff ff 	mov    %rax,-0x130(%rbp)
  406a6d:	81 3c 25 d4 d7 61 00 	cmpl   $0x501,0x61d7d4
  406a74:	01 05 00 00 
  406a78:	0f 85 75 00 00 00    	jne    406af3 <_ZN7jikoLib5GLLib6ShaderINS0_14FragmentShaderENS0_11GLAllocatorINS0_12Alloc_ShaderEEEElsERKSs+0x1133>
  406a7e:	48 bf c0 d6 61 00 00 	movabs $0x61d6c0,%rdi
  406a85:	00 00 00 
  406a88:	48 be 04 8d 41 00 00 	movabs $0x418d04,%rsi
  406a8f:	00 00 00 
  406a92:	e8 c9 b7 ff ff       	callq  402260 <_ZStlsISt11char_traitsIcEERSt13basic_ostreamIcT_ES5_PKc@plt>
  406a97:	48 be f2 8c 41 00 00 	movabs $0x418cf2,%rsi
  406a9e:	00 00 00 
  406aa1:	48 89 c7             	mov    %rax,%rdi
  406aa4:	e8 b7 b7 ff ff       	callq  402260 <_ZStlsISt11char_traitsIcEERSt13basic_ostreamIcT_ES5_PKc@plt>
  406aa9:	48 be ad 8d 41 00 00 	movabs $0x418dad,%rsi
  406ab0:	00 00 00 
  406ab3:	48 89 c7             	mov    %rax,%rdi
  406ab6:	e8 a5 b7 ff ff       	callq  402260 <_ZStlsISt11char_traitsIcEERSt13basic_ostreamIcT_ES5_PKc@plt>
  406abb:	48 be 93 8c 41 00 00 	movabs $0x418c93,%rsi
  406ac2:	00 00 00 
  406ac5:	48 89 c7             	mov    %rax,%rdi
  406ac8:	e8 93 b7 ff ff       	callq  402260 <_ZStlsISt11char_traitsIcEERSt13basic_ostreamIcT_ES5_PKc@plt>
  406acd:	be 8e 00 00 00       	mov    $0x8e,%esi
  406ad2:	48 89 c7             	mov    %rax,%rdi
  406ad5:	e8 e6 b8 ff ff       	callq  4023c0 <_ZNSolsEi@plt>
  406ada:	48 be 80 21 40 00 00 	movabs $0x402180,%rsi
  406ae1:	00 00 00 
  406ae4:	48 89 c7             	mov    %rax,%rdi
  406ae7:	e8 b4 b7 ff ff       	callq  4022a0 <_ZNSolsEPFRSoS_E@plt>
  406aec:	48 89 85 c8 fe ff ff 	mov    %rax,-0x138(%rbp)
  406af3:	81 3c 25 d4 d7 61 00 	cmpl   $0x502,0x61d7d4
  406afa:	02 05 00 00 
  406afe:	0f 85 75 00 00 00    	jne    406b79 <_ZN7jikoLib5GLLib6ShaderINS0_14FragmentShaderENS0_11GLAllocatorINS0_12Alloc_ShaderEEEElsERKSs+0x11b9>
  406b04:	48 bf c0 d6 61 00 00 	movabs $0x61d6c0,%rdi
  406b0b:	00 00 00 
  406b0e:	48 be 15 8d 41 00 00 	movabs $0x418d15,%rsi
  406b15:	00 00 00 
  406b18:	e8 43 b7 ff ff       	callq  402260 <_ZStlsISt11char_traitsIcEERSt13basic_ostreamIcT_ES5_PKc@plt>
  406b1d:	48 be f2 8c 41 00 00 	movabs $0x418cf2,%rsi
  406b24:	00 00 00 
  406b27:	48 89 c7             	mov    %rax,%rdi
  406b2a:	e8 31 b7 ff ff       	callq  402260 <_ZStlsISt11char_traitsIcEERSt13basic_ostreamIcT_ES5_PKc@plt>
  406b2f:	48 be ad 8d 41 00 00 	movabs $0x418dad,%rsi
  406b36:	00 00 00 
  406b39:	48 89 c7             	mov    %rax,%rdi
  406b3c:	e8 1f b7 ff ff       	callq  402260 <_ZStlsISt11char_traitsIcEERSt13basic_ostreamIcT_ES5_PKc@plt>
  406b41:	48 be 93 8c 41 00 00 	movabs $0x418c93,%rsi
  406b48:	00 00 00 
  406b4b:	48 89 c7             	mov    %rax,%rdi
  406b4e:	e8 0d b7 ff ff       	callq  402260 <_ZStlsISt11char_traitsIcEERSt13basic_ostreamIcT_ES5_PKc@plt>
  406b53:	be 8e 00 00 00       	mov    $0x8e,%esi
  406b58:	48 89 c7             	mov    %rax,%rdi
  406b5b:	e8 60 b8 ff ff       	callq  4023c0 <_ZNSolsEi@plt>
  406b60:	48 be 80 21 40 00 00 	movabs $0x402180,%rsi
  406b67:	00 00 00 
  406b6a:	48 89 c7             	mov    %rax,%rdi
  406b6d:	e8 2e b7 ff ff       	callq  4022a0 <_ZNSolsEPFRSoS_E@plt>
  406b72:	48 89 85 c0 fe ff ff 	mov    %rax,-0x140(%rbp)
  406b79:	81 3c 25 d4 d7 61 00 	cmpl   $0x503,0x61d7d4
  406b80:	03 05 00 00 
  406b84:	0f 85 75 00 00 00    	jne    406bff <_ZN7jikoLib5GLLib6ShaderINS0_14FragmentShaderENS0_11GLAllocatorINS0_12Alloc_ShaderEEEElsERKSs+0x123f>
  406b8a:	48 bf c0 d6 61 00 00 	movabs $0x61d6c0,%rdi
  406b91:	00 00 00 
  406b94:	48 be 2a 8d 41 00 00 	movabs $0x418d2a,%rsi
  406b9b:	00 00 00 
  406b9e:	e8 bd b6 ff ff       	callq  402260 <_ZStlsISt11char_traitsIcEERSt13basic_ostreamIcT_ES5_PKc@plt>
  406ba3:	48 be f2 8c 41 00 00 	movabs $0x418cf2,%rsi
  406baa:	00 00 00 
  406bad:	48 89 c7             	mov    %rax,%rdi
  406bb0:	e8 ab b6 ff ff       	callq  402260 <_ZStlsISt11char_traitsIcEERSt13basic_ostreamIcT_ES5_PKc@plt>
  406bb5:	48 be ad 8d 41 00 00 	movabs $0x418dad,%rsi
  406bbc:	00 00 00 
  406bbf:	48 89 c7             	mov    %rax,%rdi
  406bc2:	e8 99 b6 ff ff       	callq  402260 <_ZStlsISt11char_traitsIcEERSt13basic_ostreamIcT_ES5_PKc@plt>
  406bc7:	48 be 93 8c 41 00 00 	movabs $0x418c93,%rsi
  406bce:	00 00 00 
  406bd1:	48 89 c7             	mov    %rax,%rdi
  406bd4:	e8 87 b6 ff ff       	callq  402260 <_ZStlsISt11char_traitsIcEERSt13basic_ostreamIcT_ES5_PKc@plt>
  406bd9:	be 8e 00 00 00       	mov    $0x8e,%esi
  406bde:	48 89 c7             	mov    %rax,%rdi
  406be1:	e8 da b7 ff ff       	callq  4023c0 <_ZNSolsEi@plt>
  406be6:	48 be 80 21 40 00 00 	movabs $0x402180,%rsi
  406bed:	00 00 00 
  406bf0:	48 89 c7             	mov    %rax,%rdi
  406bf3:	e8 a8 b6 ff ff       	callq  4022a0 <_ZNSolsEPFRSoS_E@plt>
  406bf8:	48 89 85 b8 fe ff ff 	mov    %rax,-0x148(%rbp)
  406bff:	81 3c 25 d4 d7 61 00 	cmpl   $0x504,0x61d7d4
  406c06:	04 05 00 00 
  406c0a:	0f 85 75 00 00 00    	jne    406c85 <_ZN7jikoLib5GLLib6ShaderINS0_14FragmentShaderENS0_11GLAllocatorINS0_12Alloc_ShaderEEEElsERKSs+0x12c5>
  406c10:	48 bf c0 d6 61 00 00 	movabs $0x61d6c0,%rdi
  406c17:	00 00 00 
  406c1a:	48 be 3c 8d 41 00 00 	movabs $0x418d3c,%rsi
  406c21:	00 00 00 
  406c24:	e8 37 b6 ff ff       	callq  402260 <_ZStlsISt11char_traitsIcEERSt13basic_ostreamIcT_ES5_PKc@plt>
  406c29:	48 be f2 8c 41 00 00 	movabs $0x418cf2,%rsi
  406c30:	00 00 00 
  406c33:	48 89 c7             	mov    %rax,%rdi
  406c36:	e8 25 b6 ff ff       	callq  402260 <_ZStlsISt11char_traitsIcEERSt13basic_ostreamIcT_ES5_PKc@plt>
  406c3b:	48 be ad 8d 41 00 00 	movabs $0x418dad,%rsi
  406c42:	00 00 00 
  406c45:	48 89 c7             	mov    %rax,%rdi
  406c48:	e8 13 b6 ff ff       	callq  402260 <_ZStlsISt11char_traitsIcEERSt13basic_ostreamIcT_ES5_PKc@plt>
  406c4d:	48 be 93 8c 41 00 00 	movabs $0x418c93,%rsi
  406c54:	00 00 00 
  406c57:	48 89 c7             	mov    %rax,%rdi
  406c5a:	e8 01 b6 ff ff       	callq  402260 <_ZStlsISt11char_traitsIcEERSt13basic_ostreamIcT_ES5_PKc@plt>
  406c5f:	be 8e 00 00 00       	mov    $0x8e,%esi
  406c64:	48 89 c7             	mov    %rax,%rdi
  406c67:	e8 54 b7 ff ff       	callq  4023c0 <_ZNSolsEi@plt>
  406c6c:	48 be 80 21 40 00 00 	movabs $0x402180,%rsi
  406c73:	00 00 00 
  406c76:	48 89 c7             	mov    %rax,%rdi
  406c79:	e8 22 b6 ff ff       	callq  4022a0 <_ZNSolsEPFRSoS_E@plt>
  406c7e:	48 89 85 b0 fe ff ff 	mov    %rax,-0x150(%rbp)
  406c85:	81 3c 25 d4 d7 61 00 	cmpl   $0x505,0x61d7d4
  406c8c:	05 05 00 00 
  406c90:	0f 85 75 00 00 00    	jne    406d0b <_ZN7jikoLib5GLLib6ShaderINS0_14FragmentShaderENS0_11GLAllocatorINS0_12Alloc_ShaderEEEElsERKSs+0x134b>
  406c96:	48 bf c0 d6 61 00 00 	movabs $0x61d6c0,%rdi
  406c9d:	00 00 00 
  406ca0:	48 be 4f 8d 41 00 00 	movabs $0x418d4f,%rsi
  406ca7:	00 00 00 
  406caa:	e8 b1 b5 ff ff       	callq  402260 <_ZStlsISt11char_traitsIcEERSt13basic_ostreamIcT_ES5_PKc@plt>
  406caf:	48 be f2 8c 41 00 00 	movabs $0x418cf2,%rsi
  406cb6:	00 00 00 
  406cb9:	48 89 c7             	mov    %rax,%rdi
  406cbc:	e8 9f b5 ff ff       	callq  402260 <_ZStlsISt11char_traitsIcEERSt13basic_ostreamIcT_ES5_PKc@plt>
  406cc1:	48 be ad 8d 41 00 00 	movabs $0x418dad,%rsi
  406cc8:	00 00 00 
  406ccb:	48 89 c7             	mov    %rax,%rdi
  406cce:	e8 8d b5 ff ff       	callq  402260 <_ZStlsISt11char_traitsIcEERSt13basic_ostreamIcT_ES5_PKc@plt>
  406cd3:	48 be 93 8c 41 00 00 	movabs $0x418c93,%rsi
  406cda:	00 00 00 
  406cdd:	48 89 c7             	mov    %rax,%rdi
  406ce0:	e8 7b b5 ff ff       	callq  402260 <_ZStlsISt11char_traitsIcEERSt13basic_ostreamIcT_ES5_PKc@plt>
  406ce5:	be 8e 00 00 00       	mov    $0x8e,%esi
  406cea:	48 89 c7             	mov    %rax,%rdi
  406ced:	e8 ce b6 ff ff       	callq  4023c0 <_ZNSolsEi@plt>
  406cf2:	48 be 80 21 40 00 00 	movabs $0x402180,%rsi
  406cf9:	00 00 00 
  406cfc:	48 89 c7             	mov    %rax,%rdi
  406cff:	e8 9c b5 ff ff       	callq  4022a0 <_ZNSolsEPFRSoS_E@plt>
  406d04:	48 89 85 a8 fe ff ff 	mov    %rax,-0x158(%rbp)
  406d0b:	81 3c 25 d4 d7 61 00 	cmpl   $0x8031,0x61d7d4
  406d12:	31 80 00 00 
  406d16:	0f 85 75 00 00 00    	jne    406d91 <_ZN7jikoLib5GLLib6ShaderINS0_14FragmentShaderENS0_11GLAllocatorINS0_12Alloc_ShaderEEEElsERKSs+0x13d1>
  406d1c:	48 bf c0 d6 61 00 00 	movabs $0x61d6c0,%rdi
  406d23:	00 00 00 
  406d26:	48 be 60 8d 41 00 00 	movabs $0x418d60,%rsi
  406d2d:	00 00 00 
  406d30:	e8 2b b5 ff ff       	callq  402260 <_ZStlsISt11char_traitsIcEERSt13basic_ostreamIcT_ES5_PKc@plt>
  406d35:	48 be f2 8c 41 00 00 	movabs $0x418cf2,%rsi
  406d3c:	00 00 00 
  406d3f:	48 89 c7             	mov    %rax,%rdi
  406d42:	e8 19 b5 ff ff       	callq  402260 <_ZStlsISt11char_traitsIcEERSt13basic_ostreamIcT_ES5_PKc@plt>
  406d47:	48 be ad 8d 41 00 00 	movabs $0x418dad,%rsi
  406d4e:	00 00 00 
  406d51:	48 89 c7             	mov    %rax,%rdi
  406d54:	e8 07 b5 ff ff       	callq  402260 <_ZStlsISt11char_traitsIcEERSt13basic_ostreamIcT_ES5_PKc@plt>
  406d59:	48 be 93 8c 41 00 00 	movabs $0x418c93,%rsi
  406d60:	00 00 00 
  406d63:	48 89 c7             	mov    %rax,%rdi
  406d66:	e8 f5 b4 ff ff       	callq  402260 <_ZStlsISt11char_traitsIcEERSt13basic_ostreamIcT_ES5_PKc@plt>
  406d6b:	be 8e 00 00 00       	mov    $0x8e,%esi
  406d70:	48 89 c7             	mov    %rax,%rdi
  406d73:	e8 48 b6 ff ff       	callq  4023c0 <_ZNSolsEi@plt>
  406d78:	48 be 80 21 40 00 00 	movabs $0x402180,%rsi
  406d7f:	00 00 00 
  406d82:	48 89 c7             	mov    %rax,%rdi
  406d85:	e8 16 b5 ff ff       	callq  4022a0 <_ZNSolsEPFRSoS_E@plt>
  406d8a:	48 89 85 a0 fe ff ff 	mov    %rax,-0x160(%rbp)
  406d91:	48 bf c0 d6 61 00 00 	movabs $0x61d6c0,%rdi
  406d98:	00 00 00 
  406d9b:	48 8b 75 d0          	mov    -0x30(%rbp),%rsi
  406d9f:	e8 bc b4 ff ff       	callq  402260 <_ZStlsISt11char_traitsIcEERSt13basic_ostreamIcT_ES5_PKc@plt>
  406da4:	48 8b 75 d0          	mov    -0x30(%rbp),%rsi
  406da8:	48 81 fe 00 00 00 00 	cmp    $0x0,%rsi
  406daf:	48 89 85 98 fe ff ff 	mov    %rax,-0x168(%rbp)
  406db6:	48 89 b5 90 fe ff ff 	mov    %rsi,-0x170(%rbp)
  406dbd:	0f 84 0c 00 00 00    	je     406dcf <_ZN7jikoLib5GLLib6ShaderINS0_14FragmentShaderENS0_11GLAllocatorINS0_12Alloc_ShaderEEEElsERKSs+0x140f>
  406dc3:	48 8b bd 90 fe ff ff 	mov    -0x170(%rbp),%rdi
  406dca:	e8 01 b5 ff ff       	callq  4022d0 <_ZdaPv@plt>
  406dcf:	e9 00 00 00 00       	jmpq   406dd4 <_ZN7jikoLib5GLLib6ShaderINS0_14FragmentShaderENS0_11GLAllocatorINS0_12Alloc_ShaderEEEElsERKSs+0x1414>
  406dd4:	48 bf c0 d6 61 00 00 	movabs $0x61d6c0,%rdi
  406ddb:	00 00 00 
  406dde:	48 be 80 21 40 00 00 	movabs $0x402180,%rsi
  406de5:	00 00 00 
  406de8:	e8 b3 b4 ff ff       	callq  4022a0 <_ZNSolsEPFRSoS_E@plt>
  406ded:	48 89 85 88 fe ff ff 	mov    %rax,-0x178(%rbp)
  406df4:	e9 3a 00 00 00       	jmpq   406e33 <_ZN7jikoLib5GLLib6ShaderINS0_14FragmentShaderENS0_11GLAllocatorINS0_12Alloc_ShaderEEEElsERKSs+0x1473>
  406df9:	48 bf 40 d5 61 00 00 	movabs $0x61d540,%rdi
  406e00:	00 00 00 
  406e03:	48 be a5 8f 41 00 00 	movabs $0x418fa5,%rsi
  406e0a:	00 00 00 
  406e0d:	48 8b 45 c8          	mov    -0x38(%rbp),%rax
  406e11:	c6 40 04 01          	movb   $0x1,0x4(%rax)
  406e15:	e8 46 b4 ff ff       	callq  402260 <_ZStlsISt11char_traitsIcEERSt13basic_ostreamIcT_ES5_PKc@plt>
  406e1a:	48 be 80 21 40 00 00 	movabs $0x402180,%rsi
  406e21:	00 00 00 
  406e24:	48 89 c7             	mov    %rax,%rdi
  406e27:	e8 74 b4 ff ff       	callq  4022a0 <_ZNSolsEPFRSoS_E@plt>
  406e2c:	48 89 85 80 fe ff ff 	mov    %rax,-0x180(%rbp)
  406e33:	48 8b 45 c8          	mov    -0x38(%rbp),%rax
  406e37:	48 81 c4 80 01 00 00 	add    $0x180,%rsp
  406e3e:	5d                   	pop    %rbp
  406e3f:	c3                   	retq   

0000000000406e40 <_ZN7jikoLib5GLLib10ShaderProgINS0_11GLAllocatorINS0_16Alloc_ShaderProgEEEElsINS0_12VertexShaderENS2_INS0_12Alloc_ShaderEEEEERS5_RKNS0_6ShaderIT_T0_EE>:
  406e40:	55                   	push   %rbp
  406e41:	48 89 e5             	mov    %rsp,%rbp
  406e44:	48 83 ec 70          	sub    $0x70,%rsp
  406e48:	48 89 7d f8          	mov    %rdi,-0x8(%rbp)
  406e4c:	48 89 75 f0          	mov    %rsi,-0x10(%rbp)
  406e50:	48 8b 75 f8          	mov    -0x8(%rbp),%rsi
  406e54:	48 8b 3c 25 a8 d6 61 	mov    0x61d6a8,%rdi
  406e5b:	00 
  406e5c:	8b 06                	mov    (%rsi),%eax
  406e5e:	48 8b 4d f0          	mov    -0x10(%rbp),%rcx
  406e62:	48 89 7d e8          	mov    %rdi,-0x18(%rbp)
  406e66:	48 89 cf             	mov    %rcx,%rdi
  406e69:	48 89 75 e0          	mov    %rsi,-0x20(%rbp)
  406e6d:	89 45 dc             	mov    %eax,-0x24(%rbp)
  406e70:	e8 ab 8e 00 00       	callq  40fd20 <_ZNK7jikoLib5GLLib6ShaderINS0_12VertexShaderENS0_11GLAllocatorINS0_12Alloc_ShaderEEEE5getIDEv>
  406e75:	8b 7d dc             	mov    -0x24(%rbp),%edi
  406e78:	89 c6                	mov    %eax,%esi
  406e7a:	48 8b 4d e8          	mov    -0x18(%rbp),%rcx
  406e7e:	ff d1                	callq  *%rcx
  406e80:	e8 0b b3 ff ff       	callq  402190 <glGetError@plt>
  406e85:	89 04 25 d4 d7 61 00 	mov    %eax,0x61d7d4
  406e8c:	81 3c 25 d4 d7 61 00 	cmpl   $0x500,0x61d7d4
  406e93:	00 05 00 00 
  406e97:	0f 85 72 00 00 00    	jne    406f0f <_ZN7jikoLib5GLLib10ShaderProgINS0_11GLAllocatorINS0_16Alloc_ShaderProgEEEElsINS0_12VertexShaderENS2_INS0_12Alloc_ShaderEEEEERS5_RKNS0_6ShaderIT_T0_EE+0xcf>
  406e9d:	48 bf c0 d6 61 00 00 	movabs $0x61d6c0,%rdi
  406ea4:	00 00 00 
  406ea7:	48 be e2 8c 41 00 00 	movabs $0x418ce2,%rsi
  406eae:	00 00 00 
  406eb1:	e8 aa b3 ff ff       	callq  402260 <_ZStlsISt11char_traitsIcEERSt13basic_ostreamIcT_ES5_PKc@plt>
  406eb6:	48 be f2 8c 41 00 00 	movabs $0x418cf2,%rsi
  406ebd:	00 00 00 
  406ec0:	48 89 c7             	mov    %rax,%rdi
  406ec3:	e8 98 b3 ff ff       	callq  402260 <_ZStlsISt11char_traitsIcEERSt13basic_ostreamIcT_ES5_PKc@plt>
  406ec8:	48 be ad 8d 41 00 00 	movabs $0x418dad,%rsi
  406ecf:	00 00 00 
  406ed2:	48 89 c7             	mov    %rax,%rdi
  406ed5:	e8 86 b3 ff ff       	callq  402260 <_ZStlsISt11char_traitsIcEERSt13basic_ostreamIcT_ES5_PKc@plt>
  406eda:	48 be 93 8c 41 00 00 	movabs $0x418c93,%rsi
  406ee1:	00 00 00 
  406ee4:	48 89 c7             	mov    %rax,%rdi
  406ee7:	e8 74 b3 ff ff       	callq  402260 <_ZStlsISt11char_traitsIcEERSt13basic_ostreamIcT_ES5_PKc@plt>
  406eec:	be f9 00 00 00       	mov    $0xf9,%esi
  406ef1:	48 89 c7             	mov    %rax,%rdi
  406ef4:	e8 c7 b4 ff ff       	callq  4023c0 <_ZNSolsEi@plt>
  406ef9:	48 be 80 21 40 00 00 	movabs $0x402180,%rsi
  406f00:	00 00 00 
  406f03:	48 89 c7             	mov    %rax,%rdi
  406f06:	e8 95 b3 ff ff       	callq  4022a0 <_ZNSolsEPFRSoS_E@plt>
  406f0b:	48 89 45 d0          	mov    %rax,-0x30(%rbp)
  406f0f:	81 3c 25 d4 d7 61 00 	cmpl   $0x501,0x61d7d4
  406f16:	01 05 00 00 
  406f1a:	0f 85 72 00 00 00    	jne    406f92 <_ZN7jikoLib5GLLib10ShaderProgINS0_11GLAllocatorINS0_16Alloc_ShaderProgEEEElsINS0_12VertexShaderENS2_INS0_12Alloc_ShaderEEEEERS5_RKNS0_6ShaderIT_T0_EE+0x152>
  406f20:	48 bf c0 d6 61 00 00 	movabs $0x61d6c0,%rdi
  406f27:	00 00 00 
  406f2a:	48 be 04 8d 41 00 00 	movabs $0x418d04,%rsi
  406f31:	00 00 00 
  406f34:	e8 27 b3 ff ff       	callq  402260 <_ZStlsISt11char_traitsIcEERSt13basic_ostreamIcT_ES5_PKc@plt>
  406f39:	48 be f2 8c 41 00 00 	movabs $0x418cf2,%rsi
  406f40:	00 00 00 
  406f43:	48 89 c7             	mov    %rax,%rdi
  406f46:	e8 15 b3 ff ff       	callq  402260 <_ZStlsISt11char_traitsIcEERSt13basic_ostreamIcT_ES5_PKc@plt>
  406f4b:	48 be ad 8d 41 00 00 	movabs $0x418dad,%rsi
  406f52:	00 00 00 
  406f55:	48 89 c7             	mov    %rax,%rdi
  406f58:	e8 03 b3 ff ff       	callq  402260 <_ZStlsISt11char_traitsIcEERSt13basic_ostreamIcT_ES5_PKc@plt>
  406f5d:	48 be 93 8c 41 00 00 	movabs $0x418c93,%rsi
  406f64:	00 00 00 
  406f67:	48 89 c7             	mov    %rax,%rdi
  406f6a:	e8 f1 b2 ff ff       	callq  402260 <_ZStlsISt11char_traitsIcEERSt13basic_ostreamIcT_ES5_PKc@plt>
  406f6f:	be f9 00 00 00       	mov    $0xf9,%esi
  406f74:	48 89 c7             	mov    %rax,%rdi
  406f77:	e8 44 b4 ff ff       	callq  4023c0 <_ZNSolsEi@plt>
  406f7c:	48 be 80 21 40 00 00 	movabs $0x402180,%rsi
  406f83:	00 00 00 
  406f86:	48 89 c7             	mov    %rax,%rdi
